; ModuleID = 'ir/24_0.ll'
source_filename = "/home/siyuangao/CCF2023-NameInvalid/build.xilinx_vck5000_gen4x8_xdma_2_202210_1.hw/work/aie/24_0/src/24_0.cc"
target datalayout = "e-i8:8:8-i16:16:16-i32:32:32-i64:32:32-f32:32:32-f64:32:32-p:32:32:32:32:8-s0:256:256-a0:8:8-S256-n32:64-P1-p0:20:32:32:32:8-p1:20:32:32:32:8-p2:20:32:32:32:8-p3:20:32:32:32:8-p4:20:32:32:32:8-p5:20:32:32:32:8-p6:20:32:32:32:8-p7:20:32:32:32:8-p8:20:32:32:32:8-p9:1:32:32:32:32-p10:1:32:32:32:32-p11:1:32:32:32:32-p12:1:32:32:32:32-p13:1:32:32:32:32-p14:1:32:32:32:32-p15:1:32:32:32:32-p16:1:32:32:32:32-p17:1:32:32:32:32-p18:1:32:32:32:32-p19:1:32:32:32:32-p20:1:32:32:32:32-p21:1:32:32:32:32-p22:1:32:32:32:32-p23:1:32:32:32:32-p24:1:32:32:32:32"
target triple = "pdarch-unknown-unknown-elf"

%struct.ipd.custom_type.v16int8.v16int8 = type { i128 }
%class.anon = type { i8 }
%"struct.aie::detail::utils::unroll_context" = type { i8 }
%struct.window_internal = type { i32, i32, i8*, i8*, [2 x i8*], i8*, [2 x i8*], i32, i32, [2 x i32] }
%struct.input_window.1 = type { i32, i32, i8*, i8*, [2 x i8*], i8*, [2 x i8*], i32, i32, [2 x i32] }
%struct.output_window.2 = type { i32, i32, i8*, i8*, [2 x i8*], i8*, [2 x i8*], i32, i32, [2 x i32] }
%struct.ipd.custom_type.uint1_t.uint1_t.3 = type { i8 }
%struct.ipd.custom_type.uint2_t.uint2_t.4 = type { i8 }
%"class.aie::detail::vector" = type { %struct.ipd.custom_type.v32int8.v32int8 }
%struct.ipd.custom_type.v32int8.v32int8 = type { i256 }
%"class.aie::detail::accum" = type { %"struct.std::__2::array" }
%"struct.std::__2::array" = type { [2 x %struct.ipd.custom_type.v16acc48.v16acc48] }
%struct.ipd.custom_type.v16acc48.v16acc48 = type { i768 }
%"struct.aie::unary_op" = type { %"struct.aie::unary_op_common" }
%"struct.aie::unary_op_common" = type { %"class.aie::detail::accum" }
%"class.aie::detail::vector.12" = type { %struct.ipd.custom_type.v16int8.v16int8 }
%"class.aie::detail::accum.8" = type { %struct.ipd.custom_type.v16acc48.v16acc48 }
%"class.aie::detail::vector.13" = type { %struct.v8cint32 }
%struct.v8cint32 = type { %struct.ipd.custom_type.v64int8.v64int8 }
%struct.ipd.custom_type.v64int8.v64int8 = type { i512 }
%"class.aie::detail::vector.17" = type { %struct.ipd.custom_type.v64int8.v64int8 }
%struct.v4cint32 = type { %struct.ipd.custom_type.v32int8.v32int8 }
%struct.ipd.custom_type.uint3_t.uint3_t = type { i8 }
%"struct.me_primitive::chessout_v16int8_dbsrs_v16acc48___uchar_uint1_t_uint1_t_uint1_t_uint3_t_uint1_t" = type <{ %struct.ipd.custom_type.v16int8.v16int8, %struct.ipd.custom_type.uint1_t.uint1_t.3 }>
%"struct.aie::unary_op.0" = type { %"struct.aie::unary_op_common.1" }
%"struct.aie::unary_op_common.1" = type { %"class.aie::detail::vector" }
%"struct.aie::unary_op.2" = type { %"struct.aie::unary_op_common.3" }
%"struct.aie::unary_op_common.3" = type { i8 }
%"class.aie::detail::vector.5" = type { %struct.v32int16 }
%struct.v32int16 = type { %struct.ipd.custom_type.v64int8.v64int8 }
%"class.aie::detail::vector.6" = type { %struct.v8int32 }
%struct.v8int32 = type { %struct.ipd.custom_type.v32int8.v32int8 }
%class.anon.7 = type { %class.anon*, %"class.aie::detail::accum"*, %"class.aie::detail::vector.5"*, %"class.aie::detail::vector.6"*, %"class.aie::detail::accum"* }
%"class.aie::detail::vector.14" = type { %struct.v4cint32 }
%struct.v2cint32 = type { %struct.ipd.custom_type.v16int8.v16int8 }
%"struct.me_primitive::chessout_v16acc48_ups_v2b_sw_v16int8___uchar_uint1_t_uint2_t_uint1_t_uint1_t" = type <{ %struct.ipd.custom_type.v16acc48.v16acc48, %struct.ipd.custom_type.uint1_t.uint1_t.3 }>

$_Z7acquirejj = comdat any

$_Z7releasejj = comdat any

$_Z4donev = comdat any

$_ZN12me_primitive7acquireEj7uint1_tj = comdat any

$_ZN7uint1_tC2Ei = comdat any

$_ZN12me_primitive7releaseEj7uint1_tj = comdat any

$_ZN12me_primitive5eventE7uint2_t = comdat any

$_ZN7uint2_tC2Ei = comdat any

$_ZN3aie6detail6vectorIaLj32EEC2Ev = comdat any

$_ZN3aie6detail5accumILNS0_10AccumClassE0ELj32ELj32EEC2Ev = comdat any

$_ZN3aie5zerosIaLj32EEENS_6detail6vectorIT_XT0_EEEv = comdat any

$_ZN3aie6detail5accumILNS0_10AccumClassE0ELj32ELj32EEaSIaEERS3_RKNS0_6vectorIT_Lj32EEE = comdat any

$_Z17window_readincr_vILj32EL15aie_dm_resource0EaEN3aie6detail6vectorIT1_XT_EEEP12input_windowIS4_E = comdat any

$_ZN3aie3macINS_6detail5accumILNS1_10AccumClassE0ELj32ELj32EEENS1_6vectorIaLj32EEEaEENS_17operand_base_typeINS1_5utils10remove_allIT_E4typeEE4typeERKSA_RKT0_T1_ = comdat any

$_ZNK3aie6detail5accumILNS0_10AccumClassE0ELj32ELj32EE9to_vectorIaEENS0_6vectorIT_Lj32EEEi = comdat any

$_Z16window_writeincrIL15aie_dm_resource0ELj32EaEvP13output_windowIT1_ERKN3aie6detail6vectorIS2_XT0_EEE = comdat any

$_ZN3aie6detail3adf13window_helperIaLj32EL15aie_dm_resource0EE16window_writeincrEP13output_windowIaENS0_6vectorIaLj32EEE = comdat any

$_ZNK3aie6detail6vectorIaLj32EEcv7v32int8Ev = comdat any

$_Z10cyclic_addIaEPT_S1_iS1_i = comdat any

$_ZNK3aie6detail6vectorIaLj32EE9to_nativeEv = comdat any

$_ZNK3aie6detail5accumILNS0_10AccumClassE0ELj32ELj32EE7extractILj16EEENS1_ILS2_0ELj48EXT_EEEj = comdat any

$_ZZN3aie6detail5accumILNS0_10AccumClassE0ELj32ELj32EE7get_srsIaEEDavENKUlRKT_iE_clINS1_ILS2_0ELj48ELj16EEEEEDaS7_i = comdat any

$_ZN3aie6detail6vectorIaLj16EEC2E7v16int8 = comdat any

$_ZN3aie6detail6vectorIaLj32EE6insertILj16EEERS2_jRKNS1_IaXT_EEE = comdat any

$_ZNK3aie6detail6vectorIaLj16EEcv7v16int8Ev = comdat any

$_Z5upd_v7v32int8i7v16int8 = comdat any

$_ZN3aie6detail6vectorI6cint32Lj8EEC2Ev = comdat any

$_ZNK3aie6detail6vectorIaLj16EE4growILj64EEENS1_IaXT_EEEj = comdat any

$_ZNK3aie6detail6vectorIaLj64EE7cast_toI6cint32EEDav = comdat any

$_ZNK3aie6detail6vectorIaLj32EE4growILj64EEENS1_IaXT_EEEj = comdat any

$_ZNK3aie6detail6vectorI6cint32Lj8EEcv8v8cint32Ev = comdat any

$_Z7select8j8v8cint32ijS_ij = comdat any

$_ZN3aie6detail6vectorI6cint32Lj8EEC2E8v8cint32 = comdat any

$_Z5ext_w8v8cint32i = comdat any

$_Z10as_v32int88v4cint32 = comdat any

$_ZNK3aie6detail6vectorI6cint32Lj8EE9to_nativeEv = comdat any

$_ZN3aie6detail6vectorIaLj64EEC2Ev = comdat any

$_Z6xset_wi7v32int8 = comdat any

$_ZN3aie6detail14vector_storageIaLj64EE5undefEv = comdat any

$_Z13undef_v64int8v = comdat any

$_Z11as_v8cint327v64int8 = comdat any

$_ZN8v8cint32C2E17chessllvmInternal7v64int8 = comdat any

$_Z6xset_vi7v16int8 = comdat any

$_ZN3aie6detail14vector_storageI6cint32Lj8EE5undefEv = comdat any

$_Z14undef_v8cint32v = comdat any

$_ZNK3aie6detail6vectorIaLj16EE9to_nativeEv = comdat any

$_ZNK3aie6detail5accumILNS0_10AccumClassE0ELj48ELj16EEcv8v16acc48Ev = comdat any

$_Z4bsrs8v16acc48i = comdat any

$_ZN12me_primitive10shft_ilv64Ei = comdat any

$_Z12get_sat_implv = comdat any

$_Z16get_sym_sat_implv = comdat any

$_Z12get_rnd_implv = comdat any

$_ZN12me_primitive5dbsrsI7uint1_tEEN13chessEnableIfIXsr17chessIsCompatibleIN15chessRemoveQualIT_E4typeES1_EE5valueE7v16int8E4typeE8v16acc48hS1_S1_S1_7uint3_tRS4_ = comdat any

$_Z16set_srs_sat_impl7uint1_t = comdat any

$_Z20chess_dont_warn_deadI7uint1_tERKT_S3_ = comdat any

$_ZN3aie6detail5accumILNS0_10AccumClassE0ELj48ELj16EEC2Ev = comdat any

$_ZNKSt3__25arrayI8v16acc48Lj2EEixEj = comdat any

$_ZN3aie6detail13accum_storageILNS0_10AccumClassE0ELj48ELj16EE5undefEv = comdat any

$_Z14undef_v16acc48v = comdat any

$_ZN3aie6op_addINS_6detail5accumILNS1_10AccumClassE0ELj32ELj32EEEEENS_8unary_opIT_LNS_9OperationE1EEERKS6_ = comdat any

$_ZN3aie3macINS_8unary_opINS_6detail5accumILNS2_10AccumClassE0ELj32ELj32EEELNS_9OperationE1EEENS2_6vectorIaLj32EEEaEENS_17operand_base_typeINS2_5utils10remove_allIT_E4typeEE4typeERKSD_RKT0_T1_ = comdat any

$_ZN3aie7op_noneINS_6detail6vectorIaLj32EEEEENS_8unary_opIT_LNS_9OperationE0EEERKS5_ = comdat any

$_ZN3aie3macINS_8unary_opINS_6detail5accumILNS2_10AccumClassE0ELj32ELj32EEELNS_9OperationE1EEENS1_INS2_6vectorIaLj32EEELS6_0EEEaEENS_17operand_base_typeINS2_5utils10remove_allIT_E4typeEE4typeERKSE_RKT0_T1_ = comdat any

$_ZN3aie7op_noneIaEENS_8unary_opIT_LNS_9OperationE0EEERKS2_ = comdat any

$_ZN3aie3macINS_8unary_opINS_6detail5accumILNS2_10AccumClassE0ELj32ELj32EEELNS_9OperationE1EEENS1_INS2_6vectorIaLj32EEELS6_0EEENS1_IaLS6_0EEEEENS_17operand_base_typeINS2_5utils10remove_allIT_E4typeEE4typeERKSF_RKT0_T1_ = comdat any

$_ZNK3aie15unary_op_commonINS_6detail6vectorIaLj32EEELNS_9OperationE0EE7parent1Ev = comdat any

$_ZN3aie6detail12get_mul_signINS_8unary_opINS0_6vectorIaLj32EEELNS_9OperationE0EEEEEbT_ = comdat any

$_ZNK3aie15unary_op_commonIaLNS_9OperationE0EE7parent1Ev = comdat any

$_ZN3aie6detail12get_mul_signINS_8unary_opIaLNS_9OperationE0EEEEEbT_ = comdat any

$_ZNK3aie15unary_op_commonINS_6detail5accumILNS1_10AccumClassE0ELj32ELj32EEELNS_9OperationE1EE7parent1Ev = comdat any

$_ZN3aie6detail8mul_bitsILNS0_10MulMacroOpE2ELj48ELj8EaLj8EaE3runILj32EJNS0_5accumILNS0_10AccumClassE0ELj32ELj32EEEEEEDaRKNS0_6vectorIaXT_EEEbRKabDpRKT0_ = comdat any

$_ZN3aie6detail5accumILNS0_10AccumClassE0ELj32ELj32EEC2ILj48EEERKNS1_ILS2_0EXT_ELj32EEE = comdat any

$_ZN3aie6detail13mul_bits_implILNS0_10MulMacroOpE2ELj48ELj8EaLj8EaE3runILj32EJNS0_5accumILNS0_10AccumClassE0ELj32ELj32EEEEEENS5_ILS6_0ELj48EXT_EEERKNS0_6vectorIaXT_EEEbabDpRKT0_ = comdat any

$_ZNK3aie6detail6vectorIaLj32EE6unpackEv = comdat any

$_ZN3aie6detail8mul_bitsILNS0_10MulMacroOpE2ELj48ELj16EsLj16EsE3runILj32EJNS0_5accumILNS0_10AccumClassE0ELj32ELj32EEEEEEDaRKNS0_6vectorIsXT_EEEbRKsbDpRKT0_ = comdat any

$_ZN3aie6detail13mul_bits_implILNS0_10MulMacroOpE2ELj48ELj16EsLj16EsE3runILj32EJNS0_5accumILNS0_10AccumClassE0ELj32ELj32EEEEEENS5_ILS6_0ELj48EXT_EEERKNS0_6vectorIsXT_EEEbsbDpRKT0_ = comdat any

$_ZN3aie6detail6vectorIiLj8EEC2IJEEEiDpOT_ = comdat any

$_ZN3aie6detail5accumILNS0_10AccumClassE0ELj48ELj32EEC2Ev = comdat any

$_ZN3aie6detail5utils12unroll_timesILj2EZNS0_13mul_bits_implILNS0_10MulMacroOpE2ELj48ELj16EsLj16EsE3runILj32EJNS0_5accumILNS0_10AccumClassE0ELj32ELj32EEEEEENS7_ILS8_0ELj48EXT_EEERKNS0_6vectorIsXT_EEEbsbDpRKT0_EUlT_E_EEvOT0_ = comdat any

$_ZNSt3__27forwardIZN3aie6detail13mul_bits_implILNS2_10MulMacroOpE2ELj48ELj16EsLj16EsE3runILj32EJNS2_5accumILNS2_10AccumClassE0ELj32ELj32EEEEEENS7_ILS8_0ELj48EXT_EEERKNS2_6vectorIsXT_EEEbsbDpRKT0_EUlT_E_EEOSJ_RNS_16remove_referenceISJ_E4typeE = comdat any

$_ZN3aie6detail5utils10unroll_forIjLj0ELj2ELj1EZNS0_13mul_bits_implILNS0_10MulMacroOpE2ELj48ELj16EsLj16EsE3runILj32EJNS0_5accumILNS0_10AccumClassE0ELj32ELj32EEEEEENS7_ILS8_0ELj48EXT_EEERKNS0_6vectorIsXT_EEEbsbDpRKT0_EUlT_E_EEvOT3_ = comdat any

$_ZN3aie6detail5utils17unroll_for_helperIjLj0ELj2ELj0ELj1EE7executeIZNS0_13mul_bits_implILNS0_10MulMacroOpE2ELj48ELj16EsLj16EsE3runILj32EJNS0_5accumILNS0_10AccumClassE0ELj32ELj32EEEEEENS9_ILSA_0ELj48EXT_EEERKNS0_6vectorIsXT_EEEbsbDpRKT0_EUlT_E_EEvOSL_ = comdat any

$_ZZN3aie6detail13mul_bits_implILNS0_10MulMacroOpE2ELj48ELj16EsLj16EsE3runILj32EJNS0_5accumILNS0_10AccumClassE0ELj32ELj32EEEEEENS5_ILS6_0ELj48EXT_EEERKNS0_6vectorIsXT_EEEbsbDpRKT0_ENKUlT_E_clINS0_5utils14unroll_contextIjLj0ELj2ELj0EEEEEDaSH_ = comdat any

$_ZN3aie6detail5utils17unroll_for_helperIjLj0ELj2ELj1ELj1EE7executeIZNS0_13mul_bits_implILNS0_10MulMacroOpE2ELj48ELj16EsLj16EsE3runILj32EJNS0_5accumILNS0_10AccumClassE0ELj32ELj32EEEEEENS9_ILSA_0ELj48EXT_EEERKNS0_6vectorIsXT_EEEbsbDpRKT0_EUlT_E_EEvOSL_ = comdat any

$_ZZN3aie6detail13mul_bits_implILNS0_10MulMacroOpE2ELj48ELj16EsLj16EsE3runILj32EJNS0_5accumILNS0_10AccumClassE0ELj32ELj32EEEEEENS5_ILS6_0ELj48EXT_EEERKNS0_6vectorIsXT_EEEbsbDpRKT0_ENKUlT_E_clINS0_5utils14unroll_contextIjLj0ELj2ELj1EEEEEDaSH_ = comdat any

$_ZN3aie6detail5utils17unroll_for_helperIjLj0ELj2ELj2ELj1EE7executeIZNS0_13mul_bits_implILNS0_10MulMacroOpE2ELj48ELj16EsLj16EsE3runILj32EJNS0_5accumILNS0_10AccumClassE0ELj32ELj32EEEEEENS9_ILSA_0ELj48EXT_EEERKNS0_6vectorIsXT_EEEbsbDpRKT0_EUlT_E_EEvOSL_ = comdat any

$_ZNK3aie6detail5utils14unroll_contextIjLj0ELj2ELj1EEcvjEv = comdat any

$_ZNK3aie6detail5accumILNS0_10AccumClassE0ELj32ELj32EE12grow_extractILj16EEENS1_ILS2_0ELj48EXT_EEEj = comdat any

$_ZNK3aie6detail6vectorIsLj32EE12grow_extractILj32EEENS1_IsXT_EEEj = comdat any

$_ZN3aie6detail5accumILNS0_10AccumClassE0ELj48ELj16EEC2E8v16acc48 = comdat any

$_ZNK3aie6detail5accumILNS0_10AccumClassE0ELj48ELj16EE7extractILj16EEENS1_ILS2_0ELj48EXT_EEEj = comdat any

$_ZN3aie6detail5accumILNS0_10AccumClassE0ELj48ELj32EE6insertILj16ELj48EEERS3_jRKNS1_ILS2_0EXT0_EXT_EEE = comdat any

$_ZNSt3__25arrayI8v16acc48Lj2EEixEj = comdat any

$_ZNK3aie6detail6vectorIsLj32EEcv8v32int16Ev = comdat any

$_ZNK3aie6detail6vectorIiLj8EEcv7v8int32Ev = comdat any

$_Z5mac168v16acc488v32int16ijj7v8int32jjj = comdat any

$_ZNK3aie6detail6vectorIiLj8EE9to_nativeEv = comdat any

$_ZNK3aie6detail6vectorIsLj32EE9to_nativeEv = comdat any

$_ZNK3aie6detail6vectorIsLj32EE7extractILj32EEENS1_IsXT_EEEj = comdat any

$_ZNK3aie6detail5utils14unroll_contextIjLj0ELj2ELj1EE7currentEv = comdat any

$_ZNK3aie6detail5utils14unroll_contextIjLj0ELj2ELj0EEcvjEv = comdat any

$_ZNK3aie6detail5utils14unroll_contextIjLj0ELj2ELj0EE7currentEv = comdat any

$_ZN3aie6detail13accum_storageILNS0_10AccumClassE0ELj48ELj32EE5undefEv = comdat any

$_ZN3aie6detail14vector_storageIiLj8EE5undefEv = comdat any

$_ZN3aie6detail6vectorIiLj8EE23init_from_values_simpleI7v8int32JEiEEvRT_RKiDpOT0_ = comdat any

$_Z9shft_elem7v8int32i = comdat any

$_Z13undef_v8int32v = comdat any

$_ZN3aie6detail6vectorIsLj32EEC2Ev = comdat any

$_Z6unpack7v32int8 = comdat any

$_ZN12me_primitive6unpackE7v32int87uint1_t = comdat any

$_ZN3aie6detail14vector_storageIsLj32EE5undefEv = comdat any

$_Z14undef_v32int16v = comdat any

$_ZN3aie8unary_opIaLNS_9OperationE0EECI2NS_15unary_op_commonIaLS1_0EEEEa = comdat any

$_ZN3aie15unary_op_commonIaLNS_9OperationE0EEC2Ea = comdat any

$_ZN3aie8unary_opINS_6detail6vectorIaLj32EEELNS_9OperationE0EECI2NS_15unary_op_commonIS3_LS4_0EEEES3_ = comdat any

$_ZN3aie15unary_op_commonINS_6detail6vectorIaLj32EEELNS_9OperationE0EEC2ES3_ = comdat any

$_ZN3aie8unary_opINS_6detail5accumILNS1_10AccumClassE0ELj32ELj32EEELNS_9OperationE1EECI2NS_15unary_op_commonIS4_LS5_1EEEES4_ = comdat any

$_ZN3aie15unary_op_commonINS_6detail5accumILNS1_10AccumClassE0ELj32ELj32EEELNS_9OperationE1EEC2ES4_ = comdat any

$_ZN3aie6detail3adf13window_helperIaLj32EL15aie_dm_resource0EE15window_readincrEP12input_windowIaE = comdat any

$_ZN3aie6detail6vectorIaLj32EEC2E7v32int8 = comdat any

$_ZN3aie6detail5accumILNS0_10AccumClassE0ELj32ELj32EE11from_vectorIaEEvRKNS0_6vectorIT_Lj32EEEi = comdat any

$_ZNK3aie6detail6vectorIaLj32EE7extractILj16EEENS1_IaXT_EEEj = comdat any

$_ZZN3aie6detail5accumILNS0_10AccumClassE0ELj32ELj32EE7get_upsIaLj16EEEDavENKUlRKT_iE_clINS0_6vectorIaLj16EEEEEDaS7_i = comdat any

$_Z3ups7v16int8i = comdat any

$_ZN12me_primitive8shft_nrmEi = comdat any

$_ZN12me_primitive10ups_v2b_swI7uint1_tEEN13chessEnableIfIXsr17chessIsCompatibleIN15chessRemoveQualIT_E4typeES1_EE5valueE8v16acc48E4typeE7v16int8hS1_7uint2_tS1_RS4_ = comdat any

$_Z16set_ups_sat_impl7uint1_t = comdat any

$_ZN3aie6detail6vectorIaLj16EEC2Ev = comdat any

$_Z5ext_v7v32int8i = comdat any

$_ZNK3aie6detail6vectorIaLj32EE7cast_toI6cint32EEDav = comdat any

$_ZNK3aie6detail6vectorI6cint32Lj4EE4growILj8EEENS1_IS2_XT_EEEj = comdat any

$_Z8shuffle88v8cint32ij = comdat any

$_Z5ext_v8v8cint32i = comdat any

$_Z10as_v16int88v2cint32 = comdat any

$_Z6xset_wi8v4cint32 = comdat any

$_ZN3aie6detail6vectorI6cint32Lj4EEC2Ev = comdat any

$_Z11as_v4cint327v32int8 = comdat any

$_ZN8v4cint32C2E17chessllvmInternal7v32int8 = comdat any

$_ZN3aie6detail14vector_storageI6cint32Lj4EE5undefEv = comdat any

$_Z14undef_v4cint32v = comdat any

$_ZN3aie6detail14vector_storageIaLj16EE5undefEv = comdat any

$_Z13undef_v16int8v = comdat any

$_ZN3aie6detail5zerosIaLj32EEENS0_6vectorIT_XT0_EEEv = comdat any

$_ZN3aie6detail6vectorIiLj8EEC2E7v8int32 = comdat any

$_ZN3aie6detail11vector_castIaiLj8EEEDaRKNS0_6vectorIT0_XT1_EEE = comdat any

$_ZNK3aie6detail6vectorIiLj8EE7cast_toIaEEDav = comdat any

$_Z10as_v32int87v8int32 = comdat any

$_ZN3aie6detail14vector_storageIaLj32EE5undefEv = comdat any

$_Z13undef_v32int8v = comdat any

@buf0 = dso_local global [384 x %struct.ipd.custom_type.v16int8.v16int8] zeroinitializer, align 16, !dbg !0
@buf0d = dso_local global [384 x %struct.ipd.custom_type.v16int8.v16int8] zeroinitializer, align 16, !dbg !55
@buf1 = dso_local global [128 x %struct.ipd.custom_type.v16int8.v16int8] zeroinitializer, align 16, !dbg !63
@buf1d = dso_local global [128 x %struct.ipd.custom_type.v16int8.v16int8] zeroinitializer, align 16, !dbg !68
@_ZL11sync_buffer = internal global [8 x i32] [i32 0, i32 -1, i32 0, i32 0, i32 0, i32 0, i32 0, i32 0], align 16, !dbg !70
@__chess_separator_dummy = external dso_local global i8*, align 4
@__chess_separator_idummy = external dso_local global i32, align 4
@__const._ZNK3aie6detail5accumILNS0_10AccumClassE0ELj32ELj32EE9to_vectorIaEENS0_6vectorIT_Lj32EEEi.fn = private unnamed_addr constant %class.anon undef, align 1
@__const._ZN3aie6detail13mul_bits_implILNS0_10MulMacroOpE2ELj48ELj16EsLj16EsE3runILj32EJNS0_5accumILNS0_10AccumClassE0ELj32ELj32EEEEEENS5_ILS6_0ELj48EXT_EEERKNS0_6vectorIsXT_EEEbsbDpRKT0_.mul_op = private unnamed_addr constant %class.anon undef, align 1
@__const._ZN3aie6detail5utils17unroll_for_helperIjLj0ELj2ELj0ELj1EE7executeIZNS0_13mul_bits_implILNS0_10MulMacroOpE2ELj48ELj16EsLj16EsE3runILj32EJNS0_5accumILNS0_10AccumClassE0ELj32ELj32EEEEEENS9_ILSA_0ELj48EXT_EEERKNS0_6vectorIsXT_EEEbsbDpRKT0_EUlT_E_EEvOSL_.ctx = private unnamed_addr constant %"struct.aie::detail::utils::unroll_context" undef, align 1
@__const._ZN3aie6detail5utils17unroll_for_helperIjLj0ELj2ELj1ELj1EE7executeIZNS0_13mul_bits_implILNS0_10MulMacroOpE2ELj48ELj16EsLj16EsE3runILj32EJNS0_5accumILNS0_10AccumClassE0ELj32ELj32EEEEEENS9_ILSA_0ELj48EXT_EEERKNS0_6vectorIsXT_EEEbsbDpRKT0_EUlT_E_EEvOSL_.ctx = private unnamed_addr constant %"struct.aie::detail::utils::unroll_context" undef, align 1
@__const._ZN3aie6detail5accumILNS0_10AccumClassE0ELj32ELj32EE11from_vectorIaEEvRKNS0_6vectorIT_Lj32EEEi.fn = private unnamed_addr constant %class.anon undef, align 1
@ZERO = external dso_local constant [8 x i32], align 32

; Function Attrs: norecurse nounwind
define dso_local i32 @main() addrspace(1) #0 !dbg !673 {
entry:
  %window_buf0_buf0d = alloca [1 x %struct.window_internal], align 4
  %window_buf1_buf1d = alloca [1 x %struct.window_internal], align 4
  store volatile i32 0, i32* getelementptr inbounds ([8 x i32], [8 x i32]* @_ZL11sync_buffer, i32 0, i32 0), align 4, !dbg !705, !tbaa !706, !noalias !710
  store [1 x %struct.window_internal] undef, [1 x %struct.window_internal]* %window_buf0_buf0d, align 4, !dbg !714, !noalias !710
  %0 = bitcast [1 x %struct.window_internal]* %window_buf0_buf0d to i8*, !dbg !714
  call addrspace(1) void @llvm.lifetime.start.p0i8(i64 52, i8* %0) #24, !dbg !714, !noalias !710
  call addrspace(1) void @llvm.dbg.declare(metadata [1 x %struct.window_internal]* %window_buf0_buf0d, metadata !675, metadata !DIExpression()), !dbg !715
  %1 = call addrspace(1) i8* @llvm.noalias.decl.p0i8.p0a1s_struct.window_internals.i32([1 x %struct.window_internal]* %window_buf0_buf0d, i32 0, metadata !716), !dbg !714, !noalias !710
  call addrspace(1) void @llvm.dbg.value(metadata i8* undef, metadata !691, metadata !DIExpression()), !dbg !717
  call addrspace(1) void @llvm.dbg.value(metadata i8* bitcast ([384 x %struct.ipd.custom_type.v16int8.v16int8]* @buf0 to i8*), metadata !691, metadata !DIExpression()), !dbg !717
  call addrspace(1) void @llvm.dbg.value(metadata i8* undef, metadata !692, metadata !DIExpression()), !dbg !717
  call addrspace(1) void @llvm.dbg.value(metadata i8* bitcast ([384 x %struct.ipd.custom_type.v16int8.v16int8]* @buf0d to i8*), metadata !692, metadata !DIExpression()), !dbg !717
  %arraydecay = getelementptr inbounds [1 x %struct.window_internal], [1 x %struct.window_internal]* %window_buf0_buf0d, i32 0, i32 0, !dbg !718
  call addrspace(1) void @_ZL11window_initP15window_internaliP7v16int8jS2_jii(%struct.window_internal* %arraydecay, i32 1, %struct.ipd.custom_type.v16int8.v16int8* getelementptr inbounds ([384 x %struct.ipd.custom_type.v16int8.v16int8], [384 x %struct.ipd.custom_type.v16int8.v16int8]* @buf0, i32 0, i32 0), i32 32, %struct.ipd.custom_type.v16int8.v16int8* getelementptr inbounds ([384 x %struct.ipd.custom_type.v16int8.v16int8], [384 x %struct.ipd.custom_type.v16int8.v16int8]* @buf0d, i32 0, i32 0), i32 33, i32 384, i32 384) #26, !dbg !719, !noalias !710
  store [1 x %struct.window_internal] undef, [1 x %struct.window_internal]* %window_buf1_buf1d, align 4, !dbg !720, !noalias !710
  %2 = bitcast [1 x %struct.window_internal]* %window_buf1_buf1d to i8*, !dbg !720
  call addrspace(1) void @llvm.lifetime.start.p0i8(i64 52, i8* %2) #24, !dbg !720, !noalias !710
  call addrspace(1) void @llvm.dbg.declare(metadata [1 x %struct.window_internal]* %window_buf1_buf1d, metadata !693, metadata !DIExpression()), !dbg !721
  %3 = call addrspace(1) i8* @llvm.noalias.decl.p0i8.p0a1s_struct.window_internals.i32([1 x %struct.window_internal]* %window_buf1_buf1d, i32 0, metadata !722), !dbg !720, !noalias !710
  call addrspace(1) void @llvm.dbg.value(metadata i8* undef, metadata !694, metadata !DIExpression()), !dbg !717
  call addrspace(1) void @llvm.dbg.value(metadata i8* bitcast ([128 x %struct.ipd.custom_type.v16int8.v16int8]* @buf1 to i8*), metadata !694, metadata !DIExpression()), !dbg !717
  call addrspace(1) void @llvm.dbg.value(metadata i8* undef, metadata !695, metadata !DIExpression()), !dbg !717
  call addrspace(1) void @llvm.dbg.value(metadata i8* bitcast ([128 x %struct.ipd.custom_type.v16int8.v16int8]* @buf1d to i8*), metadata !695, metadata !DIExpression()), !dbg !717
  %arraydecay1 = getelementptr inbounds [1 x %struct.window_internal], [1 x %struct.window_internal]* %window_buf1_buf1d, i32 0, i32 0, !dbg !723
  call addrspace(1) void @_ZL11window_initP15window_internaliP7v16int8jS2_jii(%struct.window_internal* %arraydecay1, i32 1, %struct.ipd.custom_type.v16int8.v16int8* getelementptr inbounds ([128 x %struct.ipd.custom_type.v16int8.v16int8], [128 x %struct.ipd.custom_type.v16int8.v16int8]* @buf1, i32 0, i32 0), i32 48, %struct.ipd.custom_type.v16int8.v16int8* getelementptr inbounds ([128 x %struct.ipd.custom_type.v16int8.v16int8], [128 x %struct.ipd.custom_type.v16int8.v16int8]* @buf1d, i32 0, i32 0), i32 49, i32 128, i32 128) #26, !dbg !724, !noalias !710
  call addrspace(1) void @llvm.dbg.value(metadata i32 undef, metadata !696, metadata !DIExpression()), !dbg !717
  call addrspace(1) void @llvm.dbg.value(metadata i32 32, metadata !696, metadata !DIExpression()), !dbg !717
  call addrspace(1) void @llvm.dbg.value(metadata i32 undef, metadata !697, metadata !DIExpression()), !dbg !717
  call addrspace(1) void @llvm.dbg.value(metadata i32 48, metadata !697, metadata !DIExpression()), !dbg !717
  call addrspace(1) void @llvm.dbg.value(metadata %struct.input_window.1* undef, metadata !698, metadata !DIExpression()), !dbg !717
  %arraydecay2 = getelementptr inbounds [1 x %struct.window_internal], [1 x %struct.window_internal]* %window_buf0_buf0d, i32 0, i32 0, !dbg !725
  %call = call addrspace(1) %struct.input_window.1* @_ZL21get_input_window_int8P15window_internal(%struct.window_internal* %arraydecay2) #26, !dbg !726, !noalias !710
  call addrspace(1) void @llvm.dbg.value(metadata %struct.input_window.1* %call, metadata !698, metadata !DIExpression()), !dbg !717
  call addrspace(1) void @llvm.dbg.value(metadata %struct.output_window.2* undef, metadata !699, metadata !DIExpression()), !dbg !717
  %arraydecay3 = getelementptr inbounds [1 x %struct.window_internal], [1 x %struct.window_internal]* %window_buf1_buf1d, i32 0, i32 0, !dbg !727
  %call4 = call addrspace(1) %struct.output_window.2* @_ZL22get_output_window_int8P15window_internal(%struct.window_internal* %arraydecay3) #26, !dbg !728, !noalias !710
  call addrspace(1) void @llvm.dbg.value(metadata %struct.output_window.2* %call4, metadata !699, metadata !DIExpression()), !dbg !717
  call addrspace(1) void @llvm.dbg.value(metadata i32 undef, metadata !700, metadata !DIExpression()), !dbg !717
  call addrspace(1) void @llvm.dbg.value(metadata i32 1, metadata !700, metadata !DIExpression()), !dbg !717
  br label %while.cond, !dbg !729

while.cond:                                       ; preds = %while.end, %entry
  %index.0 = phi i32 [ 1, %entry ], [ %index.1.lcssa, %while.end ], !dbg !730
  %lockid_i0_po0.0 = phi i32 [ 48, %entry ], [ %lockid_i0_po0.1.lcssa, %while.end ], !dbg !731
  %lockid_i0_pi0.0 = phi i32 [ 32, %entry ], [ %lockid_i0_pi0.1.lcssa, %while.end ], !dbg !732
  call addrspace(1) void @llvm.dbg.value(metadata i32 %lockid_i0_pi0.0, metadata !696, metadata !DIExpression()), !dbg !717
  call addrspace(1) void @llvm.dbg.value(metadata i32 %lockid_i0_po0.0, metadata !697, metadata !DIExpression()), !dbg !717
  call addrspace(1) void @llvm.dbg.value(metadata i32 %index.0, metadata !700, metadata !DIExpression()), !dbg !717
  call addrspace(1) void @llvm.dbg.value(metadata i32 undef, metadata !703, metadata !DIExpression()), !dbg !733
  %4 = load volatile i32, i32* getelementptr inbounds ([8 x i32], [8 x i32]* @_ZL11sync_buffer, i32 0, i32 1), align 4, !dbg !734, !tbaa !706, !noalias !710
  call addrspace(1) void @llvm.dbg.value(metadata i32 %4, metadata !703, metadata !DIExpression()), !dbg !733
  call addrspace(1) void @llvm.dbg.value(metadata i32 %lockid_i0_pi0.0, metadata !696, metadata !DIExpression()), !dbg !717
  call addrspace(1) void @llvm.dbg.value(metadata i32 %lockid_i0_po0.0, metadata !697, metadata !DIExpression()), !dbg !717
  call addrspace(1) void @llvm.dbg.value(metadata i32 %index.0, metadata !700, metadata !DIExpression()), !dbg !717
  %tobool1 = icmp ne i32 %4, 0, !dbg !735
  br i1 %tobool1, label %while.body6.lr.ph, label %while.end, !dbg !736

while.body6.lr.ph:                                ; preds = %while.cond
  br label %while.body6, !dbg !736

while.body6:                                      ; preds = %while.body6, %while.body6.lr.ph
  %lockid_i0_pi0.15 = phi i32 [ %lockid_i0_pi0.0, %while.body6.lr.ph ], [ %cond, %while.body6 ]
  %lockid_i0_po0.14 = phi i32 [ %lockid_i0_po0.0, %while.body6.lr.ph ], [ %cond11, %while.body6 ]
  %index.13 = phi i32 [ %index.0, %while.body6.lr.ph ], [ %sub, %while.body6 ]
  %proc_24_0_bounds.02 = phi i32 [ %4, %while.body6.lr.ph ], [ %spec.select, %while.body6 ]
  call addrspace(1) void @llvm.dbg.value(metadata i32 %lockid_i0_pi0.15, metadata !696, metadata !DIExpression()), !dbg !717
  call addrspace(1) void @llvm.dbg.value(metadata i32 %lockid_i0_po0.14, metadata !697, metadata !DIExpression()), !dbg !717
  call addrspace(1) void @llvm.dbg.value(metadata i32 %index.13, metadata !700, metadata !DIExpression()), !dbg !717
  call addrspace(1) void @llvm.dbg.value(metadata i32 %proc_24_0_bounds.02, metadata !703, metadata !DIExpression()), !dbg !733
  call addrspace(1) void @_Z7acquirejj(i32 %lockid_i0_pi0.15, i32 1) #27, !dbg !737, !noalias !710
  call addrspace(1) void @_Z7acquirejj(i32 %lockid_i0_po0.14, i32 0) #27, !dbg !739, !noalias !710
  call addrspace(1) void @_Z10filter_macP12input_windowIaEP13output_windowIaE(%struct.input_window.1* %call, %struct.output_window.2* %call4) #26, !dbg !740, !noalias !710
  call addrspace(1) void @_Z7releasejj(i32 %lockid_i0_pi0.15, i32 0) #27, !dbg !741, !noalias !710
  call addrspace(1) void @_Z7releasejj(i32 %lockid_i0_po0.14, i32 1) #27, !dbg !742, !noalias !710
  %tobool7 = icmp ne i32 %index.13, 0, !dbg !743
  %5 = zext i1 %tobool7 to i64, !dbg !743
  %cond = select i1 %tobool7, i32 33, i32 32, !dbg !743
  call addrspace(1) void @llvm.dbg.value(metadata i32 %cond, metadata !696, metadata !DIExpression()), !dbg !717
  %arraydecay8 = getelementptr inbounds [1 x %struct.window_internal], [1 x %struct.window_internal]* %window_buf0_buf0d, i32 0, i32 0, !dbg !744
  call addrspace(1) void @_ZL20adjustPingPongBufferP15window_internalPaS1_ii(%struct.window_internal* %arraydecay8, i8* bitcast ([384 x %struct.ipd.custom_type.v16int8.v16int8]* @buf0 to i8*), i8* bitcast ([384 x %struct.ipd.custom_type.v16int8.v16int8]* @buf0d to i8*), i32 0, i32 %index.13) #26, !dbg !745, !noalias !710
  %arraydecay9 = getelementptr inbounds [1 x %struct.window_internal], [1 x %struct.window_internal]* %window_buf0_buf0d, i32 0, i32 0, !dbg !746
  %head = getelementptr inbounds %struct.window_internal, %struct.window_internal* %arraydecay9, i32 0, i32 3, !dbg !746
  %6 = load i8*, i8** %head, align 4, !dbg !746, !tbaa !747, !noalias !710
  %7 = call addrspace(1) i8* @llvm.noalias.p0i8.p0i8.p0p0i8.i32(i8* %6, i8* %1, i8** %head, i32 0, metadata !716), !dbg !746, !tbaa !747, !noalias !710
  %ptr = getelementptr inbounds %struct.input_window.1, %struct.input_window.1* %call, i32 0, i32 2, !dbg !748
  store i8* %7, i8** %ptr, align 4, !dbg !749, !tbaa !750, !noalias !710
  %tobool10 = icmp ne i32 %index.13, 0, !dbg !753
  %8 = zext i1 %tobool10 to i64, !dbg !753
  %cond11 = select i1 %tobool10, i32 49, i32 48, !dbg !753
  call addrspace(1) void @llvm.dbg.value(metadata i32 %cond11, metadata !697, metadata !DIExpression()), !dbg !717
  %arraydecay12 = getelementptr inbounds [1 x %struct.window_internal], [1 x %struct.window_internal]* %window_buf1_buf1d, i32 0, i32 0, !dbg !754
  call addrspace(1) void @_ZL20adjustPingPongBufferP15window_internalPaS1_ii(%struct.window_internal* %arraydecay12, i8* bitcast ([128 x %struct.ipd.custom_type.v16int8.v16int8]* @buf1 to i8*), i8* bitcast ([128 x %struct.ipd.custom_type.v16int8.v16int8]* @buf1d to i8*), i32 0, i32 %index.13) #26, !dbg !755, !noalias !710
  %arraydecay13 = getelementptr inbounds [1 x %struct.window_internal], [1 x %struct.window_internal]* %window_buf1_buf1d, i32 0, i32 0, !dbg !756
  %head14 = getelementptr inbounds %struct.window_internal, %struct.window_internal* %arraydecay13, i32 0, i32 3, !dbg !756
  %9 = load i8*, i8** %head14, align 4, !dbg !756, !tbaa !747, !noalias !710
  %10 = call addrspace(1) i8* @llvm.noalias.p0i8.p0i8.p0p0i8.i32(i8* %9, i8* %3, i8** %head14, i32 0, metadata !722), !dbg !756, !tbaa !747, !noalias !710
  %ptr15 = getelementptr inbounds %struct.output_window.2, %struct.output_window.2* %call4, i32 0, i32 2, !dbg !757
  store i8* %10, i8** %ptr15, align 4, !dbg !758, !tbaa !759, !noalias !710
  %sub = sub nsw i32 1, %index.13, !dbg !761
  call addrspace(1) void @llvm.dbg.value(metadata i32 %sub, metadata !700, metadata !DIExpression()), !dbg !717
  call addrspace(1) void @llvm.chess_memory_fence(), !dbg !762, !noalias !710
  %cmp = icmp sgt i32 %proc_24_0_bounds.02, 0, !dbg !763
  %dec = add nsw i32 %proc_24_0_bounds.02, -1
  %spec.select = select i1 %cmp, i32 %dec, i32 %proc_24_0_bounds.02, !dbg !765
  call addrspace(1) void @llvm.dbg.value(metadata i32 %spec.select, metadata !703, metadata !DIExpression()), !dbg !733
  %tobool = icmp ne i32 %spec.select, 0, !dbg !735
  br i1 %tobool, label %while.body6, label %while.cond5.while.end_crit_edge, !dbg !736, !llvm.loop !766

while.cond5.while.end_crit_edge:                  ; preds = %while.body6
  %split = phi i32 [ %sub, %while.body6 ]
  %split6 = phi i32 [ %cond11, %while.body6 ]
  %split7 = phi i32 [ %cond, %while.body6 ]
  br label %while.end, !dbg !736

while.end:                                        ; preds = %while.cond5.while.end_crit_edge, %while.cond
  %index.1.lcssa = phi i32 [ %split, %while.cond5.while.end_crit_edge ], [ %index.0, %while.cond ], !dbg !717
  %lockid_i0_po0.1.lcssa = phi i32 [ %split6, %while.cond5.while.end_crit_edge ], [ %lockid_i0_po0.0, %while.cond ], !dbg !717
  %lockid_i0_pi0.1.lcssa = phi i32 [ %split7, %while.cond5.while.end_crit_edge ], [ %lockid_i0_pi0.0, %while.cond ], !dbg !717
  call addrspace(1) void @_Z4donev() #27, !dbg !769, !noalias !710
  %11 = load volatile i32, i32* getelementptr inbounds ([8 x i32], [8 x i32]* @_ZL11sync_buffer, i32 0, i32 0), align 4, !dbg !770, !tbaa !706, !noalias !710
  %cmp16 = icmp sgt i32 %11, 0, !dbg !772
  br i1 %cmp16, label %while.end19, label %while.cond, !llvm.loop !773

while.end19:                                      ; preds = %while.end
  %12 = bitcast [1 x %struct.window_internal]* %window_buf1_buf1d to i8*, !dbg !775
  call addrspace(1) void @llvm.lifetime.end.p0i8(i64 52, i8* %12) #24, !dbg !775
  %13 = bitcast [1 x %struct.window_internal]* %window_buf0_buf0d to i8*, !dbg !775
  call addrspace(1) void @llvm.lifetime.end.p0i8(i64 52, i8* %13) #24, !dbg !775
  ret i32 0, !dbg !775
}

; Function Attrs: argmemonly nofree nosync nounwind willreturn
declare void @llvm.lifetime.start.p0i8(i64 immarg, i8* nocapture) addrspace(1) #1

; Function Attrs: nofree nosync nounwind readnone speculatable willreturn
declare void @llvm.dbg.declare(metadata, metadata, metadata) addrspace(1) #2

; Function Attrs: inaccessiblememonly nounwind willreturn
declare i8* @llvm.noalias.decl.p0i8.p0a1s_struct.window_internals.i32([1 x %struct.window_internal]*, i32, metadata) addrspace(1) #3

; Function Attrs: inlinehint nounwind mustprogress
define internal void @_ZL11window_initP15window_internaliP7v16int8jS2_jii(%struct.window_internal* %w, i32 %channels, %struct.ipd.custom_type.v16int8.v16int8* %buffer_ping, i32 %lockid_ping, %struct.ipd.custom_type.v16int8.v16int8* %buffer_pong, i32 %lockid_pong, i32 %size, i32 %winsize) addrspace(1) #4 !dbg !776 {
entry:
  call addrspace(1) void @llvm.dbg.value(metadata %struct.window_internal* %w, metadata !783, metadata !DIExpression()), !dbg !794
  call addrspace(1) void @llvm.dbg.value(metadata i32 1, metadata !784, metadata !DIExpression()), !dbg !794
  call addrspace(1) void @llvm.dbg.value(metadata %struct.ipd.custom_type.v16int8.v16int8* %buffer_ping, metadata !785, metadata !DIExpression()), !dbg !794
  call addrspace(1) void @llvm.dbg.value(metadata i32 %lockid_ping, metadata !786, metadata !DIExpression()), !dbg !794
  call addrspace(1) void @llvm.dbg.value(metadata %struct.ipd.custom_type.v16int8.v16int8* %buffer_pong, metadata !787, metadata !DIExpression()), !dbg !794
  call addrspace(1) void @llvm.dbg.value(metadata i32 %lockid_pong, metadata !788, metadata !DIExpression()), !dbg !794
  call addrspace(1) void @llvm.dbg.value(metadata i32 %size, metadata !789, metadata !DIExpression()), !dbg !794
  call addrspace(1) void @llvm.dbg.value(metadata i32 %winsize, metadata !790, metadata !DIExpression()), !dbg !794
  call addrspace(1) void @llvm.dbg.value(metadata i32 undef, metadata !791, metadata !DIExpression()), !dbg !794
  call addrspace(1) void @llvm.dbg.value(metadata i32 16, metadata !791, metadata !DIExpression()), !dbg !794
  call addrspace(1) void @llvm.dbg.value(metadata i32 undef, metadata !792, metadata !DIExpression()), !dbg !794
  %mul = mul nsw i32 %size, 16, !dbg !795
  call addrspace(1) void @llvm.dbg.value(metadata i32 %mul, metadata !792, metadata !DIExpression()), !dbg !794
  call addrspace(1) void @llvm.dbg.value(metadata i32 undef, metadata !793, metadata !DIExpression()), !dbg !794
  %mul1 = mul nsw i32 %winsize, 16, !dbg !795
  call addrspace(1) void @llvm.dbg.value(metadata i32 %mul1, metadata !793, metadata !DIExpression()), !dbg !794
  %0 = bitcast %struct.ipd.custom_type.v16int8.v16int8* %buffer_ping to i8*, !dbg !795
  %1 = bitcast %struct.ipd.custom_type.v16int8.v16int8* %buffer_pong to i8*, !dbg !795
  call addrspace(1) void @_ZL11window_initP15window_internaliPajS1_jii(%struct.window_internal* %w, i32 1, i8* %0, i32 %lockid_ping, i8* %1, i32 %lockid_pong, i32 %mul, i32 %mul1) #26, !dbg !795
  ret void, !dbg !795
}

; Function Attrs: inlinehint nounwind mustprogress
define internal %struct.input_window.1* @_ZL21get_input_window_int8P15window_internal(%struct.window_internal* %wind) addrspace(1) #4 !dbg !796 !noalias !802 {
entry:
  call addrspace(1) void @llvm.dbg.value(metadata %struct.window_internal* %wind, metadata !800, metadata !DIExpression()), !dbg !805
  call addrspace(1) void @llvm.dbg.value(metadata %struct.input_window.1* undef, metadata !801, metadata !DIExpression()), !dbg !805
  %0 = bitcast %struct.window_internal* %wind to %struct.input_window.1*, !dbg !806
  call addrspace(1) void @llvm.dbg.value(metadata %struct.input_window.1* %0, metadata !801, metadata !DIExpression()), !dbg !805
  %head = getelementptr inbounds %struct.window_internal, %struct.window_internal* %wind, i32 0, i32 3, !dbg !806
  %1 = load i8*, i8** %head, align 4, !dbg !806, !tbaa !747, !noalias !802
  %2 = call addrspace(1) i8* @llvm.noalias.p0i8.p0i8.p0p0i8.i32(i8* %1, i8* null, i8** %head, i32 0, metadata !802), !dbg !806, !tbaa !747, !noalias !802
  %ptr = getelementptr inbounds %struct.input_window.1, %struct.input_window.1* %0, i32 0, i32 2, !dbg !806
  store i8* %2, i8** %ptr, align 4, !dbg !806, !tbaa !750, !noalias !802
  ret %struct.input_window.1* %0, !dbg !806
}

; Function Attrs: inlinehint nounwind mustprogress
define internal %struct.output_window.2* @_ZL22get_output_window_int8P15window_internal(%struct.window_internal* %wind) addrspace(1) #4 !dbg !807 !noalias !813 {
entry:
  call addrspace(1) void @llvm.dbg.value(metadata %struct.window_internal* %wind, metadata !811, metadata !DIExpression()), !dbg !816
  call addrspace(1) void @llvm.dbg.value(metadata %struct.output_window.2* undef, metadata !812, metadata !DIExpression()), !dbg !816
  %0 = bitcast %struct.window_internal* %wind to %struct.output_window.2*, !dbg !817
  call addrspace(1) void @llvm.dbg.value(metadata %struct.output_window.2* %0, metadata !812, metadata !DIExpression()), !dbg !816
  %head = getelementptr inbounds %struct.window_internal, %struct.window_internal* %wind, i32 0, i32 3, !dbg !817
  %1 = load i8*, i8** %head, align 4, !dbg !817, !tbaa !747, !noalias !813
  %2 = call addrspace(1) i8* @llvm.noalias.p0i8.p0i8.p0p0i8.i32(i8* %1, i8* null, i8** %head, i32 0, metadata !813), !dbg !817, !tbaa !747, !noalias !813
  %ptr = getelementptr inbounds %struct.output_window.2, %struct.output_window.2* %0, i32 0, i32 2, !dbg !817
  store i8* %2, i8** %ptr, align 4, !dbg !817, !tbaa !759, !noalias !813
  ret %struct.output_window.2* %0, !dbg !817
}

; Function Attrs: alwaysinline nounwind mustprogress
define linkonce_odr dso_local void @_Z7acquirejj(i32 %id, i32 %val) addrspace(1) #5 comdat {
entry:
  %id.addr = alloca i32, align 4
  %val.addr = alloca i32, align 4
  %agg.tmp = alloca %struct.ipd.custom_type.uint1_t.uint1_t.3, align 4
  %custom_type.tmp = alloca %struct.ipd.custom_type.uint1_t.uint1_t.3, align 4
  store i32 %id, i32* %id.addr, align 4, !tbaa !706
  store i32 %val, i32* %val.addr, align 4, !tbaa !706
  call addrspace(1) void @llvm.chess_memory_fence()
  call addrspace(1) void @_ZL25chess_separator_schedulerv() #26
  %0 = load i32, i32* %id.addr, align 4, !tbaa !706
  call addrspace(1) void @_ZN7uint1_tC2Ei(%struct.ipd.custom_type.uint1_t.uint1_t.3* nonnull dereferenceable(1) %custom_type.tmp, i32 1) #26
  %1 = load %struct.ipd.custom_type.uint1_t.uint1_t.3, %struct.ipd.custom_type.uint1_t.uint1_t.3* %custom_type.tmp, align 4, !tbaa !818
  store %struct.ipd.custom_type.uint1_t.uint1_t.3 %1, %struct.ipd.custom_type.uint1_t.uint1_t.3* %agg.tmp, align 4, !tbaa !818
  %2 = load i32, i32* %val.addr, align 4, !tbaa !706
  %3 = load %struct.ipd.custom_type.uint1_t.uint1_t.3, %struct.ipd.custom_type.uint1_t.uint1_t.3* %agg.tmp, align 4, !tbaa !818
  call addrspace(1) void @_ZN12me_primitive7acquireEj7uint1_tj(i32 %0, %struct.ipd.custom_type.uint1_t.uint1_t.3 %3, i32 %2) #28
  call addrspace(1) void @_ZL25chess_separator_schedulerv() #26
  call addrspace(1) void @llvm.chess_memory_fence()
  ret void
}

; Function Attrs: alwaysinline nounwind mustprogress
define linkonce_odr dso_local void @_Z7releasejj(i32 %id, i32 %val) addrspace(1) #5 comdat {
entry:
  %id.addr = alloca i32, align 4
  %val.addr = alloca i32, align 4
  %agg.tmp = alloca %struct.ipd.custom_type.uint1_t.uint1_t.3, align 4
  %custom_type.tmp = alloca %struct.ipd.custom_type.uint1_t.uint1_t.3, align 4
  store i32 %id, i32* %id.addr, align 4, !tbaa !706
  store i32 %val, i32* %val.addr, align 4, !tbaa !706
  call addrspace(1) void @llvm.chess_memory_fence()
  call addrspace(1) void @_ZL25chess_separator_schedulerv() #26
  %0 = load i32, i32* %id.addr, align 4, !tbaa !706
  call addrspace(1) void @_ZN7uint1_tC2Ei(%struct.ipd.custom_type.uint1_t.uint1_t.3* nonnull dereferenceable(1) %custom_type.tmp, i32 1) #26
  %1 = load %struct.ipd.custom_type.uint1_t.uint1_t.3, %struct.ipd.custom_type.uint1_t.uint1_t.3* %custom_type.tmp, align 4, !tbaa !818
  store %struct.ipd.custom_type.uint1_t.uint1_t.3 %1, %struct.ipd.custom_type.uint1_t.uint1_t.3* %agg.tmp, align 4, !tbaa !818
  %2 = load i32, i32* %val.addr, align 4, !tbaa !706
  %3 = load %struct.ipd.custom_type.uint1_t.uint1_t.3, %struct.ipd.custom_type.uint1_t.uint1_t.3* %agg.tmp, align 4, !tbaa !818
  call addrspace(1) void @_ZN12me_primitive7releaseEj7uint1_tj(i32 %0, %struct.ipd.custom_type.uint1_t.uint1_t.3 %3, i32 %2) #28
  call addrspace(1) void @_ZL25chess_separator_schedulerv() #26
  call addrspace(1) void @llvm.chess_memory_fence()
  ret void
}

; Function Attrs: inlinehint nounwind mustprogress
define internal void @_ZL20adjustPingPongBufferP15window_internalPaS1_ii(%struct.window_internal* %w, i8* chesscopy noalias %ping_buffer, i8* chesscopy noalias %pong_buffer, i32 %margin, i32 %index) addrspace(1) #4 !dbg !820 !noalias !830 {
entry:
  %ping_buffer.addr = alloca i8*, align 4
  %pong_buffer.addr = alloca i8*, align 4
  %h1 = alloca i8*, align 4
  call addrspace(1) void @llvm.dbg.value(metadata %struct.window_internal* %w, metadata !824, metadata !DIExpression()), !dbg !833
  %0 = call addrspace(1) i8* @llvm.noalias.decl.p0i8.p0p0i8.i32(i8** %ping_buffer.addr, i32 0, metadata !834), !noalias !836
  store i8* %ping_buffer, i8** %ping_buffer.addr, align 4, !tbaa !839, !noalias !836
  call addrspace(1) void @llvm.dbg.declare(metadata i8** %ping_buffer.addr, metadata !825, metadata !DIExpression()), !dbg !840
  %1 = call addrspace(1) i8* @llvm.noalias.decl.p0i8.p0p0i8.i32(i8** %pong_buffer.addr, i32 0, metadata !841), !noalias !836
  store i8* %pong_buffer, i8** %pong_buffer.addr, align 4, !tbaa !839, !noalias !836
  call addrspace(1) void @llvm.dbg.declare(metadata i8** %pong_buffer.addr, metadata !826, metadata !DIExpression()), !dbg !842
  call addrspace(1) void @llvm.dbg.value(metadata i32 0, metadata !827, metadata !DIExpression()), !dbg !833
  call addrspace(1) void @llvm.dbg.value(metadata i32 %index, metadata !828, metadata !DIExpression()), !dbg !833
  store i8* undef, i8** %h1, align 4, !dbg !843, !noalias !836
  %2 = bitcast i8** %h1 to i8*, !dbg !843
  call addrspace(1) void @llvm.lifetime.start.p0i8(i64 4, i8* %2) #24, !dbg !843, !noalias !836
  call addrspace(1) void @llvm.dbg.declare(metadata i8** %h1, metadata !829, metadata !DIExpression()), !dbg !844
  %3 = call addrspace(1) i8* @llvm.noalias.decl.p0i8.p0p0i8.i32(i8** %h1, i32 0, metadata !845), !dbg !843, !noalias !836
  %sub = sub nsw i32 1, %index, !dbg !846
  %tobool = icmp ne i32 %sub, 0, !dbg !847
  %4 = load i8*, i8** %pong_buffer.addr, align 4, !dbg !847
  %5 = call addrspace(1) i8* @llvm.noalias.p0i8.p0i8.p0p0i8.i32(i8* %4, i8* %1, i8** %pong_buffer.addr, i32 0, metadata !841), !dbg !847
  %6 = load i8*, i8** %ping_buffer.addr, align 4, !dbg !847
  %7 = call addrspace(1) i8* @llvm.noalias.p0i8.p0i8.p0p0i8.i32(i8* %6, i8* %0, i8** %ping_buffer.addr, i32 0, metadata !834), !dbg !847
  %cond = select i1 %tobool, i8* %5, i8* %7, !dbg !847
  %add.ptr = getelementptr inbounds i8, i8* %cond, i32 0, !dbg !848
  %8 = call addrspace(1) i8* @llvm.chess.copy.p0i8(i8* %add.ptr), !dbg !844
  store i8* %8, i8** %h1, align 4, !dbg !844, !tbaa !839, !noalias !836
  %head = getelementptr inbounds %struct.window_internal, %struct.window_internal* %w, i32 0, i32 3, !dbg !849
  %9 = load i8*, i8** %head, align 4, !dbg !849, !tbaa !747, !noalias !836
  %10 = call addrspace(1) i8* @llvm.noalias.p0i8.p0i8.p0p0i8.i32(i8* %9, i8* null, i8** %head, i32 0, metadata !830), !dbg !849, !tbaa !747, !noalias !836
  store i8* %10, i8** %h1, align 4, !dbg !850, !tbaa !839, !noalias !836
  %tobool1 = icmp ne i32 %index, 0, !dbg !851
  %11 = load i8*, i8** %pong_buffer.addr, align 4, !dbg !851
  %12 = call addrspace(1) i8* @llvm.noalias.p0i8.p0i8.p0p0i8.i32(i8* %11, i8* %1, i8** %pong_buffer.addr, i32 0, metadata !841), !dbg !851
  %13 = load i8*, i8** %ping_buffer.addr, align 4, !dbg !851
  %14 = call addrspace(1) i8* @llvm.noalias.p0i8.p0i8.p0p0i8.i32(i8* %13, i8* %0, i8** %ping_buffer.addr, i32 0, metadata !834), !dbg !851
  %cond5 = select i1 %tobool1, i8* %12, i8* %14, !dbg !851
  %buffer = getelementptr inbounds %struct.window_internal, %struct.window_internal* %w, i32 0, i32 5, !dbg !852
  store i8* %cond5, i8** %buffer, align 4, !dbg !853, !tbaa !747, !noalias !836
  %tobool6 = icmp ne i32 %index, 0, !dbg !854
  %15 = load i8*, i8** %pong_buffer.addr, align 4, !dbg !854
  %16 = call addrspace(1) i8* @llvm.noalias.p0i8.p0i8.p0p0i8.i32(i8* %15, i8* %1, i8** %pong_buffer.addr, i32 0, metadata !841), !dbg !854
  %17 = load i8*, i8** %ping_buffer.addr, align 4, !dbg !854
  %18 = call addrspace(1) i8* @llvm.noalias.p0i8.p0i8.p0p0i8.i32(i8* %17, i8* %0, i8** %ping_buffer.addr, i32 0, metadata !834), !dbg !854
  %cond10 = select i1 %tobool6, i8* %16, i8* %18, !dbg !854
  %add.ptr11 = getelementptr inbounds i8, i8* %cond10, i32 0, !dbg !855
  %head12 = getelementptr inbounds %struct.window_internal, %struct.window_internal* %w, i32 0, i32 3, !dbg !856
  store i8* %add.ptr11, i8** %head12, align 4, !dbg !857, !tbaa !747, !noalias !836
  %19 = bitcast i8** %h1 to i8*, !dbg !858
  call addrspace(1) void @llvm.lifetime.end.p0i8(i64 4, i8* %19) #24, !dbg !858
  ret void, !dbg !858
}

; Function Attrs: argmemonly nounwind speculatable willreturn
declare i8* @llvm.noalias.p0i8.p0i8.p0p0i8.i32(i8*, i8*, i8**, i32, metadata) addrspace(1) #6

; Function Attrs: nounwind willreturn
declare void @llvm.chess_memory_fence() addrspace(1) #7

; Function Attrs: alwaysinline nounwind mustprogress
define linkonce_odr dso_local void @_Z4donev() addrspace(1) #5 comdat {
entry:
  %agg.tmp = alloca %struct.ipd.custom_type.uint2_t.uint2_t.4, align 4
  %custom_type.tmp = alloca %struct.ipd.custom_type.uint2_t.uint2_t.4, align 4
  call addrspace(1) void @llvm.chess_memory_fence()
  call addrspace(1) void @_ZL25chess_separator_scheduleri(i32 8) #26
  call addrspace(1) void @_ZN7uint2_tC2Ei(%struct.ipd.custom_type.uint2_t.uint2_t.4* nonnull dereferenceable(1) %custom_type.tmp, i32 2) #26
  %0 = load %struct.ipd.custom_type.uint2_t.uint2_t.4, %struct.ipd.custom_type.uint2_t.uint2_t.4* %custom_type.tmp, align 4, !tbaa !859
  store %struct.ipd.custom_type.uint2_t.uint2_t.4 %0, %struct.ipd.custom_type.uint2_t.uint2_t.4* %agg.tmp, align 4, !tbaa !859
  %1 = load %struct.ipd.custom_type.uint2_t.uint2_t.4, %struct.ipd.custom_type.uint2_t.uint2_t.4* %agg.tmp, align 4, !tbaa !859
  call addrspace(1) void @_ZN12me_primitive5eventE7uint2_t(%struct.ipd.custom_type.uint2_t.uint2_t.4 %1) #28
  call addrspace(1) void @_ZL25chess_separator_scheduleri(i32 5) #26
  call addrspace(1) void @llvm.chess_memory_fence()
  ret void
}

; Function Attrs: argmemonly nofree nosync nounwind willreturn
declare void @llvm.lifetime.end.p0i8(i64 immarg, i8* nocapture) addrspace(1) #1

; Function Attrs: inlinehint nounwind mustprogress
define internal void @_ZL11window_initP15window_internaliPajS1_jii(%struct.window_internal* %w, i32 %channels, i8* %buffer_ping, i32 %lockid_ping, i8* %buffer_pong, i32 %lockid_pong, i32 %size, i32 %winsize) addrspace(1) #4 !dbg !861 !noalias !875 {
entry:
  call addrspace(1) void @llvm.dbg.value(metadata %struct.window_internal* %w, metadata !865, metadata !DIExpression()), !dbg !878
  call addrspace(1) void @llvm.dbg.value(metadata i32 1, metadata !866, metadata !DIExpression()), !dbg !878
  call addrspace(1) void @llvm.dbg.value(metadata i8* %buffer_ping, metadata !867, metadata !DIExpression()), !dbg !878
  call addrspace(1) void @llvm.dbg.value(metadata i32 %lockid_ping, metadata !868, metadata !DIExpression()), !dbg !878
  call addrspace(1) void @llvm.dbg.value(metadata i8* %buffer_pong, metadata !869, metadata !DIExpression()), !dbg !878
  call addrspace(1) void @llvm.dbg.value(metadata i32 %lockid_pong, metadata !870, metadata !DIExpression()), !dbg !878
  call addrspace(1) void @llvm.dbg.value(metadata i32 %size, metadata !871, metadata !DIExpression()), !dbg !878
  call addrspace(1) void @llvm.dbg.value(metadata i32 %winsize, metadata !872, metadata !DIExpression()), !dbg !878
  call addrspace(1) void @llvm.dbg.value(metadata i32 undef, metadata !873, metadata !DIExpression()), !dbg !879
  call addrspace(1) void @llvm.dbg.value(metadata i32 0, metadata !873, metadata !DIExpression()), !dbg !879
  br label %for.body, !dbg !880

for.body:                                         ; preds = %if.end, %entry
  %i.01 = phi i32 [ 0, %entry ], [ %inc, %if.end ]
  call addrspace(1) void @llvm.dbg.value(metadata i32 %i.01, metadata !873, metadata !DIExpression()), !dbg !879
  %mul = mul nuw nsw i32 %size, %i.01, !dbg !881
  %add.ptr = getelementptr inbounds i8, i8* %buffer_ping, i32 %mul, !dbg !884
  %arrayidx = getelementptr inbounds %struct.window_internal, %struct.window_internal* %w, i32 %i.01, !dbg !885
  %buffers = getelementptr inbounds %struct.window_internal, %struct.window_internal* %arrayidx, i32 0, i32 6, !dbg !886
  %arrayidx1 = getelementptr inbounds [2 x i8*], [2 x i8*]* %buffers, i32 0, i32 0, !dbg !885
  store i8* %add.ptr, i8** %arrayidx1, align 4, !dbg !887, !tbaa !747, !noalias !875
  %arrayidx2 = getelementptr inbounds %struct.window_internal, %struct.window_internal* %w, i32 %i.01, !dbg !888
  %buffers3 = getelementptr inbounds %struct.window_internal, %struct.window_internal* %arrayidx2, i32 0, i32 6, !dbg !889
  %arrayidx4 = getelementptr inbounds [2 x i8*], [2 x i8*]* %buffers3, i32 0, i32 0, !dbg !888
  %0 = load i8*, i8** %arrayidx4, align 4, !dbg !888, !tbaa !747, !noalias !875
  %1 = call addrspace(1) i8* @llvm.noalias.p0i8.p0i8.p0p0i8.i32(i8* %0, i8* null, i8** %arrayidx4, i32 0, metadata !875), !dbg !888, !tbaa !747, !noalias !875
  %arrayidx5 = getelementptr inbounds %struct.window_internal, %struct.window_internal* %w, i32 %i.01, !dbg !890
  %heads = getelementptr inbounds %struct.window_internal, %struct.window_internal* %arrayidx5, i32 0, i32 4, !dbg !891
  %arrayidx6 = getelementptr inbounds [2 x i8*], [2 x i8*]* %heads, i32 0, i32 0, !dbg !890
  store i8* %1, i8** %arrayidx6, align 4, !dbg !892, !tbaa !747, !noalias !875
  %arrayidx7 = getelementptr inbounds %struct.window_internal, %struct.window_internal* %w, i32 %i.01, !dbg !893
  %lockids = getelementptr inbounds %struct.window_internal, %struct.window_internal* %arrayidx7, i32 0, i32 9, !dbg !894
  %arrayidx8 = getelementptr inbounds [2 x i32], [2 x i32]* %lockids, i32 0, i32 0, !dbg !893
  store i32 %lockid_ping, i32* %arrayidx8, align 4, !dbg !895, !tbaa !747, !noalias !875
  %arrayidx9 = getelementptr inbounds %struct.window_internal, %struct.window_internal* %w, i32 %i.01, !dbg !896
  %buffers10 = getelementptr inbounds %struct.window_internal, %struct.window_internal* %arrayidx9, i32 0, i32 6, !dbg !897
  %arrayidx11 = getelementptr inbounds [2 x i8*], [2 x i8*]* %buffers10, i32 0, i32 1, !dbg !896
  store i8* null, i8** %arrayidx11, align 4, !dbg !898, !tbaa !747, !noalias !875
  %arrayidx12 = getelementptr inbounds %struct.window_internal, %struct.window_internal* %w, i32 %i.01, !dbg !899
  %heads13 = getelementptr inbounds %struct.window_internal, %struct.window_internal* %arrayidx12, i32 0, i32 4, !dbg !900
  %arrayidx14 = getelementptr inbounds [2 x i8*], [2 x i8*]* %heads13, i32 0, i32 1, !dbg !899
  store i8* null, i8** %arrayidx14, align 4, !dbg !901, !tbaa !747, !noalias !875
  %arrayidx15 = getelementptr inbounds %struct.window_internal, %struct.window_internal* %w, i32 %i.01, !dbg !902
  %lockids16 = getelementptr inbounds %struct.window_internal, %struct.window_internal* %arrayidx15, i32 0, i32 9, !dbg !903
  %arrayidx17 = getelementptr inbounds [2 x i32], [2 x i32]* %lockids16, i32 0, i32 1, !dbg !902
  store i32 -1, i32* %arrayidx17, align 4, !dbg !904, !tbaa !747, !noalias !875
  %cmp18 = icmp ne i8* %buffer_pong, %buffer_ping, !dbg !905
  br i1 %cmp18, label %if.then, label %if.end, !dbg !907

if.then:                                          ; preds = %for.body
  %mul19 = mul nuw nsw i32 %size, %i.01, !dbg !908
  %add.ptr20 = getelementptr inbounds i8, i8* %buffer_pong, i32 %mul19, !dbg !910
  %arrayidx21 = getelementptr inbounds %struct.window_internal, %struct.window_internal* %w, i32 %i.01, !dbg !911
  %buffers22 = getelementptr inbounds %struct.window_internal, %struct.window_internal* %arrayidx21, i32 0, i32 6, !dbg !912
  %arrayidx23 = getelementptr inbounds [2 x i8*], [2 x i8*]* %buffers22, i32 0, i32 1, !dbg !911
  store i8* %add.ptr20, i8** %arrayidx23, align 4, !dbg !913, !tbaa !747, !noalias !875
  %arrayidx24 = getelementptr inbounds %struct.window_internal, %struct.window_internal* %w, i32 %i.01, !dbg !914
  %buffers25 = getelementptr inbounds %struct.window_internal, %struct.window_internal* %arrayidx24, i32 0, i32 6, !dbg !915
  %arrayidx26 = getelementptr inbounds [2 x i8*], [2 x i8*]* %buffers25, i32 0, i32 1, !dbg !914
  %2 = load i8*, i8** %arrayidx26, align 4, !dbg !914, !tbaa !747, !noalias !875
  %3 = call addrspace(1) i8* @llvm.noalias.p0i8.p0i8.p0p0i8.i32(i8* %2, i8* null, i8** %arrayidx26, i32 0, metadata !875), !dbg !914, !tbaa !747, !noalias !875
  %arrayidx27 = getelementptr inbounds %struct.window_internal, %struct.window_internal* %w, i32 %i.01, !dbg !916
  %heads28 = getelementptr inbounds %struct.window_internal, %struct.window_internal* %arrayidx27, i32 0, i32 4, !dbg !917
  %arrayidx29 = getelementptr inbounds [2 x i8*], [2 x i8*]* %heads28, i32 0, i32 1, !dbg !916
  store i8* %3, i8** %arrayidx29, align 4, !dbg !918, !tbaa !747, !noalias !875
  %arrayidx30 = getelementptr inbounds %struct.window_internal, %struct.window_internal* %w, i32 %i.01, !dbg !919
  %lockids31 = getelementptr inbounds %struct.window_internal, %struct.window_internal* %arrayidx30, i32 0, i32 9, !dbg !920
  %arrayidx32 = getelementptr inbounds [2 x i32], [2 x i32]* %lockids31, i32 0, i32 1, !dbg !919
  store i32 %lockid_pong, i32* %arrayidx32, align 4, !dbg !921, !tbaa !747, !noalias !875
  br label %if.end, !dbg !922

if.end:                                           ; preds = %if.then, %for.body
  %arrayidx33 = getelementptr inbounds %struct.window_internal, %struct.window_internal* %w, i32 %i.01, !dbg !923
  %current_bufid = getelementptr inbounds %struct.window_internal, %struct.window_internal* %arrayidx33, i32 0, i32 0, !dbg !924
  store i32 0, i32* %current_bufid, align 4, !dbg !925, !tbaa !747, !noalias !875
  %arrayidx34 = getelementptr inbounds %struct.window_internal, %struct.window_internal* %w, i32 %i.01, !dbg !926
  %buffers35 = getelementptr inbounds %struct.window_internal, %struct.window_internal* %arrayidx34, i32 0, i32 6, !dbg !927
  %arrayidx36 = getelementptr inbounds [2 x i8*], [2 x i8*]* %buffers35, i32 0, i32 0, !dbg !926
  %4 = load i8*, i8** %arrayidx36, align 4, !dbg !926, !tbaa !747, !noalias !875
  %5 = call addrspace(1) i8* @llvm.noalias.p0i8.p0i8.p0p0i8.i32(i8* %4, i8* null, i8** %arrayidx36, i32 0, metadata !875), !dbg !926, !tbaa !747, !noalias !875
  %arrayidx37 = getelementptr inbounds %struct.window_internal, %struct.window_internal* %w, i32 %i.01, !dbg !928
  %buffer = getelementptr inbounds %struct.window_internal, %struct.window_internal* %arrayidx37, i32 0, i32 5, !dbg !929
  store i8* %5, i8** %buffer, align 4, !dbg !930, !tbaa !747, !noalias !875
  %arrayidx38 = getelementptr inbounds %struct.window_internal, %struct.window_internal* %w, i32 %i.01, !dbg !931
  %heads39 = getelementptr inbounds %struct.window_internal, %struct.window_internal* %arrayidx38, i32 0, i32 4, !dbg !932
  %arrayidx40 = getelementptr inbounds [2 x i8*], [2 x i8*]* %heads39, i32 0, i32 0, !dbg !931
  %6 = load i8*, i8** %arrayidx40, align 4, !dbg !931, !tbaa !747, !noalias !875
  %7 = call addrspace(1) i8* @llvm.noalias.p0i8.p0i8.p0p0i8.i32(i8* %6, i8* null, i8** %arrayidx40, i32 0, metadata !875), !dbg !931, !tbaa !747, !noalias !875
  %arrayidx41 = getelementptr inbounds %struct.window_internal, %struct.window_internal* %w, i32 %i.01, !dbg !933
  %head = getelementptr inbounds %struct.window_internal, %struct.window_internal* %arrayidx41, i32 0, i32 3, !dbg !934
  store i8* %7, i8** %head, align 4, !dbg !935, !tbaa !747, !noalias !875
  %arrayidx42 = getelementptr inbounds %struct.window_internal, %struct.window_internal* %w, i32 %i.01, !dbg !936
  %head43 = getelementptr inbounds %struct.window_internal, %struct.window_internal* %arrayidx42, i32 0, i32 3, !dbg !937
  %8 = load i8*, i8** %head43, align 4, !dbg !937, !tbaa !747, !noalias !875
  %9 = call addrspace(1) i8* @llvm.noalias.p0i8.p0i8.p0p0i8.i32(i8* %8, i8* null, i8** %head43, i32 0, metadata !875), !dbg !937, !tbaa !747, !noalias !875
  %arrayidx44 = getelementptr inbounds %struct.window_internal, %struct.window_internal* %w, i32 %i.01, !dbg !938
  %ptr = getelementptr inbounds %struct.window_internal, %struct.window_internal* %arrayidx44, i32 0, i32 2, !dbg !939
  store i8* %9, i8** %ptr, align 4, !dbg !940, !tbaa !747, !noalias !875
  %arrayidx45 = getelementptr inbounds %struct.window_internal, %struct.window_internal* %w, i32 %i.01, !dbg !941
  %size46 = getelementptr inbounds %struct.window_internal, %struct.window_internal* %arrayidx45, i32 0, i32 7, !dbg !942
  store i32 %size, i32* %size46, align 4, !dbg !943, !tbaa !747, !noalias !875
  %arrayidx47 = getelementptr inbounds %struct.window_internal, %struct.window_internal* %w, i32 %i.01, !dbg !944
  %winsize48 = getelementptr inbounds %struct.window_internal, %struct.window_internal* %arrayidx47, i32 0, i32 8, !dbg !945
  store i32 %winsize, i32* %winsize48, align 4, !dbg !946, !tbaa !747, !noalias !875
  %inc = add nuw nsw i32 %i.01, 1, !dbg !947
  call addrspace(1) void @llvm.dbg.value(metadata i32 %inc, metadata !873, metadata !DIExpression()), !dbg !879
  br i1 false, label %for.body, label %for.end, !dbg !880, !llvm.loop !948

for.end:                                          ; preds = %if.end
  ret void, !dbg !953
}

; Function Attrs: alwaysinline nounwind mustprogress
define internal void @_ZL25chess_separator_schedulerv() addrspace(1) #8 {
entry:
  store volatile i8* inttoptr (i20 1 to i8*), i8** @__chess_separator_dummy, align 4, !tbaa !954
  ret void
}

; Function Attrs: alwaysinline nounwind mustprogress
define linkonce_odr dso_local void @_ZN12me_primitive7acquireEj7uint1_tj(i32 %a0, %struct.ipd.custom_type.uint1_t.uint1_t.3 %a1.coerce, i32 %a2) addrspace(1) #9 comdat {
entry:
  %a1 = alloca %struct.ipd.custom_type.uint1_t.uint1_t.3, align 4
  %a0.addr = alloca i32, align 4
  %a2.addr = alloca i32, align 4
  store %struct.ipd.custom_type.uint1_t.uint1_t.3 %a1.coerce, %struct.ipd.custom_type.uint1_t.uint1_t.3* %a1, align 4
  store i32 %a0, i32* %a0.addr, align 4, !tbaa !706
  store i32 %a2, i32* %a2.addr, align 4, !tbaa !706
  %0 = load i32, i32* %a0.addr, align 4, !tbaa !706
  %1 = load i32, i32* %a2.addr, align 4, !tbaa !706
  %2 = load %struct.ipd.custom_type.uint1_t.uint1_t.3, %struct.ipd.custom_type.uint1_t.uint1_t.3* %a1, align 4, !tbaa !818
  call x86_regcallcc addrspace(1) void @__regcall3__chessintr_void_acquire___uint_uint1_t___uint(i32 zeroext %0, %struct.ipd.custom_type.uint1_t.uint1_t.3 %2, i32 zeroext %1) #29
  ret void
}

; Function Attrs: alwaysinline nounwind
define linkonce_odr dso_local void @_ZN7uint1_tC2Ei(%struct.ipd.custom_type.uint1_t.uint1_t.3* nonnull dereferenceable(1) %this, i32 %a) unnamed_addr addrspace(1) #10 comdat align 2 {
entry:
  %this.addr = alloca %struct.ipd.custom_type.uint1_t.uint1_t.3*, align 4
  %a.addr = alloca i32, align 4
  store %struct.ipd.custom_type.uint1_t.uint1_t.3* %this, %struct.ipd.custom_type.uint1_t.uint1_t.3** %this.addr, align 4, !tbaa !839
  store i32 %a, i32* %a.addr, align 4, !tbaa !706
  %this1 = load %struct.ipd.custom_type.uint1_t.uint1_t.3*, %struct.ipd.custom_type.uint1_t.uint1_t.3** %this.addr, align 4
  %0 = bitcast %struct.ipd.custom_type.uint1_t.uint1_t.3* %this1 to i8*
  %bf.load = load i8, i8* %0, align 4
  %bf.clear = and i8 %bf.load, -2
  store i8 %bf.clear, i8* %0, align 4
  %1 = load i32, i32* %a.addr, align 4, !tbaa !706
  %2 = call addrspace(1) %struct.ipd.custom_type.uint1_t.uint1_t.3 @llvm.chess.init.customint.s_struct.ipd.custom_type.uint1_t.uint1_t.3s.i32.p1f_s_struct.ipd.custom_type.uint1_t.uint1_t.3si32f(%struct.ipd.custom_type.uint1_t.uint1_t.3 undef, i32 %1, i32 1, i32 32, i1 true, i32 0, %struct.ipd.custom_type.uint1_t.uint1_t.3 (i32) addrspace(1)* @__regcall3__chessintr_uint1_t_uint1_t___sint)
  store %struct.ipd.custom_type.uint1_t.uint1_t.3 %2, %struct.ipd.custom_type.uint1_t.uint1_t.3* %this1, align 4
  ret void
}

; Function Attrs: inaccessiblememonly nounwind
declare dso_local x86_regcallcc void @__regcall3__chessintr_void_acquire___uint_uint1_t___uint(i32 zeroext, %struct.ipd.custom_type.uint1_t.uint1_t.3, i32 zeroext) addrspace(1) #11

; Function Attrs: nounwind readnone willreturn
declare dso_local x86_regcallcc %struct.ipd.custom_type.uint1_t.uint1_t.3 @__regcall3__chessintr_uint1_t_uint1_t___sint(i32 signext) addrspace(1) #12

; Function Attrs: nounwind readnone willreturn
declare %struct.ipd.custom_type.uint1_t.uint1_t.3 @llvm.chess.init.customint.s_struct.ipd.custom_type.uint1_t.uint1_t.3s.i32.p1f_s_struct.ipd.custom_type.uint1_t.uint1_t.3si32f(%struct.ipd.custom_type.uint1_t.uint1_t.3, i32, i32, i32, i1, i32, %struct.ipd.custom_type.uint1_t.uint1_t.3 (i32) addrspace(1)*) addrspace(1) #13

; Function Attrs: alwaysinline nounwind mustprogress
define linkonce_odr dso_local void @_ZN12me_primitive7releaseEj7uint1_tj(i32 %a0, %struct.ipd.custom_type.uint1_t.uint1_t.3 %a1.coerce, i32 %a2) addrspace(1) #9 comdat {
entry:
  %a1 = alloca %struct.ipd.custom_type.uint1_t.uint1_t.3, align 4
  %a0.addr = alloca i32, align 4
  %a2.addr = alloca i32, align 4
  store %struct.ipd.custom_type.uint1_t.uint1_t.3 %a1.coerce, %struct.ipd.custom_type.uint1_t.uint1_t.3* %a1, align 4
  store i32 %a0, i32* %a0.addr, align 4, !tbaa !706
  store i32 %a2, i32* %a2.addr, align 4, !tbaa !706
  %0 = load i32, i32* %a0.addr, align 4, !tbaa !706
  %1 = load i32, i32* %a2.addr, align 4, !tbaa !706
  %2 = load %struct.ipd.custom_type.uint1_t.uint1_t.3, %struct.ipd.custom_type.uint1_t.uint1_t.3* %a1, align 4, !tbaa !818
  call x86_regcallcc addrspace(1) void @__regcall3__chessintr_void_release___uint_uint1_t___uint(i32 zeroext %0, %struct.ipd.custom_type.uint1_t.uint1_t.3 %2, i32 zeroext %1) #29
  ret void
}

; Function Attrs: inaccessiblememonly nounwind
declare dso_local x86_regcallcc void @__regcall3__chessintr_void_release___uint_uint1_t___uint(i32 zeroext, %struct.ipd.custom_type.uint1_t.uint1_t.3, i32 zeroext) addrspace(1) #11

; Function Attrs: inaccessiblememonly nounwind willreturn
declare i8* @llvm.noalias.decl.p0i8.p0p0i8.i32(i8**, i32, metadata) addrspace(1) #3

; Function Attrs: nocse nounwind readnone willreturn
declare i8* @llvm.chess.copy.p0i8(i8*) addrspace(1) #14

; Function Attrs: alwaysinline nounwind mustprogress
define internal void @_ZL25chess_separator_scheduleri(i32 %i) addrspace(1) #8 {
entry:
  %i.addr = alloca i32, align 4
  store i32 %i, i32* %i.addr, align 4, !tbaa !706
  %0 = load i32, i32* %i.addr, align 4, !tbaa !706
  store volatile i32 %0, i32* @__chess_separator_idummy, align 4, !tbaa !957
  ret void
}

; Function Attrs: alwaysinline nounwind mustprogress
define linkonce_odr dso_local void @_ZN12me_primitive5eventE7uint2_t(%struct.ipd.custom_type.uint2_t.uint2_t.4 %a0.coerce) addrspace(1) #9 comdat {
entry:
  %a0 = alloca %struct.ipd.custom_type.uint2_t.uint2_t.4, align 4
  store %struct.ipd.custom_type.uint2_t.uint2_t.4 %a0.coerce, %struct.ipd.custom_type.uint2_t.uint2_t.4* %a0, align 4
  %0 = load %struct.ipd.custom_type.uint2_t.uint2_t.4, %struct.ipd.custom_type.uint2_t.uint2_t.4* %a0, align 4, !tbaa !859
  call x86_regcallcc addrspace(1) void @__regcall3__chessintr_void_event_uint2_t(%struct.ipd.custom_type.uint2_t.uint2_t.4 %0) #29
  ret void
}

; Function Attrs: alwaysinline nounwind
define linkonce_odr dso_local void @_ZN7uint2_tC2Ei(%struct.ipd.custom_type.uint2_t.uint2_t.4* nonnull dereferenceable(1) %this, i32 %a) unnamed_addr addrspace(1) #10 comdat align 2 {
entry:
  %this.addr = alloca %struct.ipd.custom_type.uint2_t.uint2_t.4*, align 4
  %a.addr = alloca i32, align 4
  store %struct.ipd.custom_type.uint2_t.uint2_t.4* %this, %struct.ipd.custom_type.uint2_t.uint2_t.4** %this.addr, align 4, !tbaa !839
  store i32 2, i32* %a.addr, align 4, !tbaa !706
  %this1 = load %struct.ipd.custom_type.uint2_t.uint2_t.4*, %struct.ipd.custom_type.uint2_t.uint2_t.4** %this.addr, align 4
  %0 = bitcast %struct.ipd.custom_type.uint2_t.uint2_t.4* %this1 to i8*
  %bf.load = load i8, i8* %0, align 4
  %bf.clear = and i8 %bf.load, -4
  store i8 %bf.clear, i8* %0, align 4
  %1 = load i32, i32* %a.addr, align 4, !tbaa !706
  %2 = call addrspace(1) %struct.ipd.custom_type.uint2_t.uint2_t.4 @llvm.chess.init.customint.s_struct.ipd.custom_type.uint2_t.uint2_t.4s.i32.p1f_s_struct.ipd.custom_type.uint2_t.uint2_t.4si32f(%struct.ipd.custom_type.uint2_t.uint2_t.4 undef, i32 %1, i32 2, i32 32, i1 true, i32 0, %struct.ipd.custom_type.uint2_t.uint2_t.4 (i32) addrspace(1)* @__regcall3__chessintr_uint2_t_uint2_t___sint)
  store %struct.ipd.custom_type.uint2_t.uint2_t.4 %2, %struct.ipd.custom_type.uint2_t.uint2_t.4* %this1, align 4
  ret void
}

; Function Attrs: inaccessiblememonly nounwind
declare dso_local x86_regcallcc void @__regcall3__chessintr_void_event_uint2_t(%struct.ipd.custom_type.uint2_t.uint2_t.4) addrspace(1) #11

; Function Attrs: nounwind readnone willreturn
declare dso_local x86_regcallcc %struct.ipd.custom_type.uint2_t.uint2_t.4 @__regcall3__chessintr_uint2_t_uint2_t___sint(i32 signext) addrspace(1) #12

; Function Attrs: nounwind readnone willreturn
declare %struct.ipd.custom_type.uint2_t.uint2_t.4 @llvm.chess.init.customint.s_struct.ipd.custom_type.uint2_t.uint2_t.4s.i32.p1f_s_struct.ipd.custom_type.uint2_t.uint2_t.4si32f(%struct.ipd.custom_type.uint2_t.uint2_t.4, i32, i32, i32, i1, i32, %struct.ipd.custom_type.uint2_t.uint2_t.4 (i32) addrspace(1)*) addrspace(1) #13

; Function Attrs: noinline nounwind mustprogress
define dso_local void @_Z10filter_macP12input_windowIaEP13output_windowIaE(%struct.input_window.1* %in, %struct.output_window.2* %out) addrspace(1) #15 !dbg !959 {
entry:
  %data1 = alloca %"class.aie::detail::vector", align 32
  %custom_type.tmp = alloca %"class.aie::detail::vector", align 32
  %data2 = alloca %"class.aie::detail::vector", align 32
  %custom_type.tmp1 = alloca %"class.aie::detail::vector", align 32
  %data3 = alloca %"class.aie::detail::vector", align 32
  %custom_type.tmp2 = alloca %"class.aie::detail::vector", align 32
  %acc1 = alloca %"class.aie::detail::accum", align 32
  %custom_type.tmp3 = alloca %"class.aie::detail::accum", align 32
  %acc2 = alloca %"class.aie::detail::accum", align 32
  %custom_type.tmp4 = alloca %"class.aie::detail::accum", align 32
  %acc3 = alloca %"class.aie::detail::accum", align 32
  %custom_type.tmp5 = alloca %"class.aie::detail::accum", align 32
  %ref.tmp = alloca %"class.aie::detail::vector", align 32
  %ref.tmp7 = alloca %"class.aie::detail::vector", align 32
  %ref.tmp10 = alloca %"class.aie::detail::vector", align 32
  %tmp = alloca %"class.aie::detail::vector", align 32
  %tmp14 = alloca %"class.aie::detail::vector", align 32
  %tmp16 = alloca %"class.aie::detail::vector", align 32
  %tmp18 = alloca %"class.aie::detail::accum", align 32
  %tmp19 = alloca %"class.aie::detail::accum", align 32
  %tmp20 = alloca %"class.aie::detail::accum", align 32
  %tmp21 = alloca %"class.aie::detail::vector", align 32
  %tmp23 = alloca %"class.aie::detail::vector", align 32
  %tmp25 = alloca %"class.aie::detail::vector", align 32
  %tmp27 = alloca %"class.aie::detail::accum", align 32
  %tmp28 = alloca %"class.aie::detail::accum", align 32
  %tmp29 = alloca %"class.aie::detail::accum", align 32
  %tmp30 = alloca %"class.aie::detail::accum", align 32
  %tmp31 = alloca %"class.aie::detail::accum", align 32
  %tmp32 = alloca %"class.aie::detail::accum", align 32
  %tmp33 = alloca %"class.aie::detail::vector", align 32
  %tmp35 = alloca %"class.aie::detail::vector", align 32
  %tmp37 = alloca %"class.aie::detail::vector", align 32
  %tmp39 = alloca %"class.aie::detail::accum", align 32
  %tmp40 = alloca %"class.aie::detail::accum", align 32
  %tmp41 = alloca %"class.aie::detail::accum", align 32
  %tmp42 = alloca %"class.aie::detail::accum", align 32
  %tmp43 = alloca %"class.aie::detail::accum", align 32
  %tmp44 = alloca %"class.aie::detail::accum", align 32
  %tmp45 = alloca %"class.aie::detail::accum", align 32
  %tmp46 = alloca %"class.aie::detail::accum", align 32
  %tmp47 = alloca %"class.aie::detail::accum", align 32
  %ref.tmp48 = alloca %"class.aie::detail::vector", align 32
  %ref.tmp50 = alloca %"class.aie::detail::vector", align 32
  %tmp53 = alloca %"class.aie::detail::vector", align 32
  %tmp55 = alloca %"class.aie::detail::vector", align 32
  %tmp57 = alloca %"class.aie::detail::vector", align 32
  %tmp59 = alloca %"class.aie::detail::accum", align 32
  %tmp60 = alloca %"class.aie::detail::accum", align 32
  %tmp61 = alloca %"class.aie::detail::accum", align 32
  %tmp62 = alloca %"class.aie::detail::accum", align 32
  %tmp63 = alloca %"class.aie::detail::accum", align 32
  %tmp64 = alloca %"class.aie::detail::accum", align 32
  %tmp65 = alloca %"class.aie::detail::vector", align 32
  %tmp67 = alloca %"class.aie::detail::vector", align 32
  %tmp69 = alloca %"class.aie::detail::vector", align 32
  %tmp71 = alloca %"class.aie::detail::accum", align 32
  %tmp72 = alloca %"class.aie::detail::accum", align 32
  %tmp73 = alloca %"class.aie::detail::accum", align 32
  %ref.tmp74 = alloca %"class.aie::detail::vector", align 32
  %ref.tmp76 = alloca %"class.aie::detail::vector", align 32
  call addrspace(1) void @llvm.dbg.value(metadata %struct.input_window.1* %in, metadata !963, metadata !DIExpression()), !dbg !1307
  call addrspace(1) void @llvm.dbg.value(metadata %struct.output_window.2* %out, metadata !964, metadata !DIExpression()), !dbg !1307
  store %"class.aie::detail::vector" undef, %"class.aie::detail::vector"* %data1, align 32, !dbg !1308
  %0 = bitcast %"class.aie::detail::vector"* %data1 to i8*, !dbg !1308
  call addrspace(1) void @llvm.lifetime.start.p0i8(i64 32, i8* %0) #24, !dbg !1308
  call addrspace(1) void @llvm.dbg.declare(metadata %"class.aie::detail::vector"* %data1, metadata !965, metadata !DIExpression()), !dbg !1309
  call addrspace(1) void @_ZN3aie6detail6vectorIaLj32EEC2Ev(%"class.aie::detail::vector"* nonnull dereferenceable(32) %custom_type.tmp) #26, !dbg !1309
  %1 = load %"class.aie::detail::vector", %"class.aie::detail::vector"* %custom_type.tmp, align 32, !dbg !1309, !tbaa !1310
  store %"class.aie::detail::vector" %1, %"class.aie::detail::vector"* %data1, align 32, !dbg !1309, !tbaa !1310
  store %"class.aie::detail::vector" undef, %"class.aie::detail::vector"* %data2, align 32, !dbg !1313
  %2 = bitcast %"class.aie::detail::vector"* %data2 to i8*, !dbg !1313
  call addrspace(1) void @llvm.lifetime.start.p0i8(i64 32, i8* %2) #24, !dbg !1313
  call addrspace(1) void @llvm.dbg.declare(metadata %"class.aie::detail::vector"* %data2, metadata !1165, metadata !DIExpression()), !dbg !1314
  call addrspace(1) void @_ZN3aie6detail6vectorIaLj32EEC2Ev(%"class.aie::detail::vector"* nonnull dereferenceable(32) %custom_type.tmp1) #26, !dbg !1314
  %3 = load %"class.aie::detail::vector", %"class.aie::detail::vector"* %custom_type.tmp1, align 32, !dbg !1314, !tbaa !1310
  store %"class.aie::detail::vector" %3, %"class.aie::detail::vector"* %data2, align 32, !dbg !1314, !tbaa !1310
  store %"class.aie::detail::vector" undef, %"class.aie::detail::vector"* %data3, align 32, !dbg !1315
  %4 = bitcast %"class.aie::detail::vector"* %data3 to i8*, !dbg !1315
  call addrspace(1) void @llvm.lifetime.start.p0i8(i64 32, i8* %4) #24, !dbg !1315
  call addrspace(1) void @llvm.dbg.declare(metadata %"class.aie::detail::vector"* %data3, metadata !1166, metadata !DIExpression()), !dbg !1316
  call addrspace(1) void @_ZN3aie6detail6vectorIaLj32EEC2Ev(%"class.aie::detail::vector"* nonnull dereferenceable(32) %custom_type.tmp2) #26, !dbg !1316
  %5 = load %"class.aie::detail::vector", %"class.aie::detail::vector"* %custom_type.tmp2, align 32, !dbg !1316, !tbaa !1310
  store %"class.aie::detail::vector" %5, %"class.aie::detail::vector"* %data3, align 32, !dbg !1316, !tbaa !1310
  store %"class.aie::detail::accum" undef, %"class.aie::detail::accum"* %acc1, align 32, !dbg !1317
  %6 = bitcast %"class.aie::detail::accum"* %acc1 to i8*, !dbg !1317
  call addrspace(1) void @llvm.lifetime.start.p0i8(i64 256, i8* %6) #24, !dbg !1317
  call addrspace(1) void @llvm.dbg.declare(metadata %"class.aie::detail::accum"* %acc1, metadata !1167, metadata !DIExpression()), !dbg !1318
  call addrspace(1) void @_ZN3aie6detail5accumILNS0_10AccumClassE0ELj32ELj32EEC2Ev(%"class.aie::detail::accum"* nonnull dereferenceable(256) %custom_type.tmp3) #26, !dbg !1318
  %7 = load %"class.aie::detail::accum", %"class.aie::detail::accum"* %custom_type.tmp3, align 32, !dbg !1318, !tbaa !1319
  store %"class.aie::detail::accum" %7, %"class.aie::detail::accum"* %acc1, align 32, !dbg !1318, !tbaa !1319
  store %"class.aie::detail::accum" undef, %"class.aie::detail::accum"* %acc2, align 32, !dbg !1323
  %8 = bitcast %"class.aie::detail::accum"* %acc2 to i8*, !dbg !1323
  call addrspace(1) void @llvm.lifetime.start.p0i8(i64 256, i8* %8) #24, !dbg !1323
  call addrspace(1) void @llvm.dbg.declare(metadata %"class.aie::detail::accum"* %acc2, metadata !1303, metadata !DIExpression()), !dbg !1324
  call addrspace(1) void @_ZN3aie6detail5accumILNS0_10AccumClassE0ELj32ELj32EEC2Ev(%"class.aie::detail::accum"* nonnull dereferenceable(256) %custom_type.tmp4) #26, !dbg !1324
  %9 = load %"class.aie::detail::accum", %"class.aie::detail::accum"* %custom_type.tmp4, align 32, !dbg !1324, !tbaa !1319
  store %"class.aie::detail::accum" %9, %"class.aie::detail::accum"* %acc2, align 32, !dbg !1324, !tbaa !1319
  store %"class.aie::detail::accum" undef, %"class.aie::detail::accum"* %acc3, align 32, !dbg !1325
  %10 = bitcast %"class.aie::detail::accum"* %acc3 to i8*, !dbg !1325
  call addrspace(1) void @llvm.lifetime.start.p0i8(i64 256, i8* %10) #24, !dbg !1325
  call addrspace(1) void @llvm.dbg.declare(metadata %"class.aie::detail::accum"* %acc3, metadata !1304, metadata !DIExpression()), !dbg !1326
  call addrspace(1) void @_ZN3aie6detail5accumILNS0_10AccumClassE0ELj32ELj32EEC2Ev(%"class.aie::detail::accum"* nonnull dereferenceable(256) %custom_type.tmp5) #26, !dbg !1326
  %11 = load %"class.aie::detail::accum", %"class.aie::detail::accum"* %custom_type.tmp5, align 32, !dbg !1326, !tbaa !1319
  store %"class.aie::detail::accum" %11, %"class.aie::detail::accum"* %acc3, align 32, !dbg !1326, !tbaa !1319
  %12 = bitcast %"class.aie::detail::vector"* %ref.tmp to i8*, !dbg !1327
  call addrspace(1) void @llvm.lifetime.start.p0i8(i64 32, i8* %12) #24, !dbg !1327
  %call = call addrspace(1) %"class.aie::detail::vector" @_ZN3aie5zerosIaLj32EEENS_6detail6vectorIT_XT0_EEEv() #26, !dbg !1327
  %13 = getelementptr inbounds %"class.aie::detail::vector", %"class.aie::detail::vector"* %ref.tmp, i32 0, i32 0, !dbg !1327
  %14 = extractvalue %"class.aie::detail::vector" %call, 0, !dbg !1327
  store %struct.ipd.custom_type.v32int8.v32int8 %14, %struct.ipd.custom_type.v32int8.v32int8* %13, align 32, !dbg !1327
  %call6 = call nonnull align 32 dereferenceable(256) addrspace(1) %"class.aie::detail::accum"* @_ZN3aie6detail5accumILNS0_10AccumClassE0ELj32ELj32EEaSIaEERS3_RKNS0_6vectorIT_Lj32EEE(%"class.aie::detail::accum"* nonnull dereferenceable(256) %acc1, %"class.aie::detail::vector"* nonnull align 32 dereferenceable(32) %ref.tmp) #26, !dbg !1328
  %15 = bitcast %"class.aie::detail::vector"* %ref.tmp to i8*, !dbg !1329
  call addrspace(1) void @llvm.lifetime.end.p0i8(i64 32, i8* %15) #24, !dbg !1329
  %16 = bitcast %"class.aie::detail::vector"* %ref.tmp7 to i8*, !dbg !1330
  call addrspace(1) void @llvm.lifetime.start.p0i8(i64 32, i8* %16) #24, !dbg !1330
  %call8 = call addrspace(1) %"class.aie::detail::vector" @_ZN3aie5zerosIaLj32EEENS_6detail6vectorIT_XT0_EEEv() #26, !dbg !1330
  %17 = getelementptr inbounds %"class.aie::detail::vector", %"class.aie::detail::vector"* %ref.tmp7, i32 0, i32 0, !dbg !1330
  %18 = extractvalue %"class.aie::detail::vector" %call8, 0, !dbg !1330
  store %struct.ipd.custom_type.v32int8.v32int8 %18, %struct.ipd.custom_type.v32int8.v32int8* %17, align 32, !dbg !1330
  %call9 = call nonnull align 32 dereferenceable(256) addrspace(1) %"class.aie::detail::accum"* @_ZN3aie6detail5accumILNS0_10AccumClassE0ELj32ELj32EEaSIaEERS3_RKNS0_6vectorIT_Lj32EEE(%"class.aie::detail::accum"* nonnull dereferenceable(256) %acc2, %"class.aie::detail::vector"* nonnull align 32 dereferenceable(32) %ref.tmp7) #26, !dbg !1331
  %19 = bitcast %"class.aie::detail::vector"* %ref.tmp7 to i8*, !dbg !1332
  call addrspace(1) void @llvm.lifetime.end.p0i8(i64 32, i8* %19) #24, !dbg !1332
  %20 = bitcast %"class.aie::detail::vector"* %ref.tmp10 to i8*, !dbg !1333
  call addrspace(1) void @llvm.lifetime.start.p0i8(i64 32, i8* %20) #24, !dbg !1333
  %call11 = call addrspace(1) %"class.aie::detail::vector" @_ZN3aie5zerosIaLj32EEENS_6detail6vectorIT_XT0_EEEv() #26, !dbg !1333
  %21 = getelementptr inbounds %"class.aie::detail::vector", %"class.aie::detail::vector"* %ref.tmp10, i32 0, i32 0, !dbg !1333
  %22 = extractvalue %"class.aie::detail::vector" %call11, 0, !dbg !1333
  store %struct.ipd.custom_type.v32int8.v32int8 %22, %struct.ipd.custom_type.v32int8.v32int8* %21, align 32, !dbg !1333
  %call12 = call nonnull align 32 dereferenceable(256) addrspace(1) %"class.aie::detail::accum"* @_ZN3aie6detail5accumILNS0_10AccumClassE0ELj32ELj32EEaSIaEERS3_RKNS0_6vectorIT_Lj32EEE(%"class.aie::detail::accum"* nonnull dereferenceable(256) %acc3, %"class.aie::detail::vector"* nonnull align 32 dereferenceable(32) %ref.tmp10) #26, !dbg !1334
  %23 = bitcast %"class.aie::detail::vector"* %ref.tmp10 to i8*, !dbg !1335
  call addrspace(1) void @llvm.lifetime.end.p0i8(i64 32, i8* %23) #24, !dbg !1335
  %24 = bitcast %"class.aie::detail::vector"* %tmp to i8*, !dbg !1336
  call addrspace(1) void @llvm.lifetime.start.p0i8(i64 32, i8* %24) #24, !dbg !1336
  %call13 = call addrspace(1) %"class.aie::detail::vector" @_Z17window_readincr_vILj32EL15aie_dm_resource0EaEN3aie6detail6vectorIT1_XT_EEEP12input_windowIS4_E(%struct.input_window.1* %in) #26, !dbg !1336
  %25 = getelementptr inbounds %"class.aie::detail::vector", %"class.aie::detail::vector"* %tmp, i32 0, i32 0, !dbg !1336
  %26 = extractvalue %"class.aie::detail::vector" %call13, 0, !dbg !1336
  store %struct.ipd.custom_type.v32int8.v32int8 %26, %struct.ipd.custom_type.v32int8.v32int8* %25, align 32, !dbg !1336
  %27 = load %"class.aie::detail::vector", %"class.aie::detail::vector"* %tmp, align 32, !dbg !1336, !tbaa !1310
  store %"class.aie::detail::vector" %27, %"class.aie::detail::vector"* %data1, align 32, !dbg !1336, !tbaa !1310
  %28 = bitcast %"class.aie::detail::vector"* %tmp to i8*, !dbg !1336
  call addrspace(1) void @llvm.lifetime.end.p0i8(i64 32, i8* %28) #24, !dbg !1336
  %29 = bitcast %"class.aie::detail::vector"* %tmp14 to i8*, !dbg !1337
  call addrspace(1) void @llvm.lifetime.start.p0i8(i64 32, i8* %29) #24, !dbg !1337
  %call15 = call addrspace(1) %"class.aie::detail::vector" @_Z17window_readincr_vILj32EL15aie_dm_resource0EaEN3aie6detail6vectorIT1_XT_EEEP12input_windowIS4_E(%struct.input_window.1* %in) #26, !dbg !1337
  %30 = getelementptr inbounds %"class.aie::detail::vector", %"class.aie::detail::vector"* %tmp14, i32 0, i32 0, !dbg !1337
  %31 = extractvalue %"class.aie::detail::vector" %call15, 0, !dbg !1337
  store %struct.ipd.custom_type.v32int8.v32int8 %31, %struct.ipd.custom_type.v32int8.v32int8* %30, align 32, !dbg !1337
  %32 = load %"class.aie::detail::vector", %"class.aie::detail::vector"* %tmp14, align 32, !dbg !1337, !tbaa !1310
  store %"class.aie::detail::vector" %32, %"class.aie::detail::vector"* %data2, align 32, !dbg !1337, !tbaa !1310
  %33 = bitcast %"class.aie::detail::vector"* %tmp14 to i8*, !dbg !1337
  call addrspace(1) void @llvm.lifetime.end.p0i8(i64 32, i8* %33) #24, !dbg !1337
  %34 = bitcast %"class.aie::detail::vector"* %tmp16 to i8*, !dbg !1338
  call addrspace(1) void @llvm.lifetime.start.p0i8(i64 32, i8* %34) #24, !dbg !1338
  %call17 = call addrspace(1) %"class.aie::detail::vector" @_Z17window_readincr_vILj32EL15aie_dm_resource0EaEN3aie6detail6vectorIT1_XT_EEEP12input_windowIS4_E(%struct.input_window.1* %in) #26, !dbg !1338
  %35 = getelementptr inbounds %"class.aie::detail::vector", %"class.aie::detail::vector"* %tmp16, i32 0, i32 0, !dbg !1338
  %36 = extractvalue %"class.aie::detail::vector" %call17, 0, !dbg !1338
  store %struct.ipd.custom_type.v32int8.v32int8 %36, %struct.ipd.custom_type.v32int8.v32int8* %35, align 32, !dbg !1338
  %37 = load %"class.aie::detail::vector", %"class.aie::detail::vector"* %tmp16, align 32, !dbg !1338, !tbaa !1310
  store %"class.aie::detail::vector" %37, %"class.aie::detail::vector"* %data3, align 32, !dbg !1338, !tbaa !1310
  %38 = bitcast %"class.aie::detail::vector"* %tmp16 to i8*, !dbg !1338
  call addrspace(1) void @llvm.lifetime.end.p0i8(i64 32, i8* %38) #24, !dbg !1338
  %39 = bitcast %"class.aie::detail::accum"* %tmp18 to i8*, !dbg !1339
  call addrspace(1) void @llvm.lifetime.start.p0i8(i64 256, i8* %39) #24, !dbg !1339
  call addrspace(1) void @_ZN3aie3macINS_6detail5accumILNS1_10AccumClassE0ELj32ELj32EEENS1_6vectorIaLj32EEEaEENS_17operand_base_typeINS1_5utils10remove_allIT_E4typeEE4typeERKSA_RKT0_T1_(%"class.aie::detail::accum"* sret(%"class.aie::detail::accum") align 32 %tmp18, %"class.aie::detail::accum"* nonnull align 32 dereferenceable(256) %acc1, %"class.aie::detail::vector"* nonnull align 32 dereferenceable(32) %data1, i8 signext 0) #26, !dbg !1339
  %40 = load %"class.aie::detail::accum", %"class.aie::detail::accum"* %tmp18, align 32, !dbg !1339, !tbaa !1319
  store %"class.aie::detail::accum" %40, %"class.aie::detail::accum"* %acc1, align 32, !dbg !1339, !tbaa !1319
  %41 = bitcast %"class.aie::detail::accum"* %tmp18 to i8*, !dbg !1339
  call addrspace(1) void @llvm.lifetime.end.p0i8(i64 256, i8* %41) #24, !dbg !1339
  %42 = bitcast %"class.aie::detail::accum"* %tmp19 to i8*, !dbg !1340
  call addrspace(1) void @llvm.lifetime.start.p0i8(i64 256, i8* %42) #24, !dbg !1340
  call addrspace(1) void @_ZN3aie3macINS_6detail5accumILNS1_10AccumClassE0ELj32ELj32EEENS1_6vectorIaLj32EEEaEENS_17operand_base_typeINS1_5utils10remove_allIT_E4typeEE4typeERKSA_RKT0_T1_(%"class.aie::detail::accum"* sret(%"class.aie::detail::accum") align 32 %tmp19, %"class.aie::detail::accum"* nonnull align 32 dereferenceable(256) %acc1, %"class.aie::detail::vector"* nonnull align 32 dereferenceable(32) %data2, i8 signext 1) #26, !dbg !1340
  %43 = load %"class.aie::detail::accum", %"class.aie::detail::accum"* %tmp19, align 32, !dbg !1340, !tbaa !1319
  store %"class.aie::detail::accum" %43, %"class.aie::detail::accum"* %acc1, align 32, !dbg !1340, !tbaa !1319
  %44 = bitcast %"class.aie::detail::accum"* %tmp19 to i8*, !dbg !1340
  call addrspace(1) void @llvm.lifetime.end.p0i8(i64 256, i8* %44) #24, !dbg !1340
  %45 = bitcast %"class.aie::detail::accum"* %tmp20 to i8*, !dbg !1341
  call addrspace(1) void @llvm.lifetime.start.p0i8(i64 256, i8* %45) #24, !dbg !1341
  call addrspace(1) void @_ZN3aie3macINS_6detail5accumILNS1_10AccumClassE0ELj32ELj32EEENS1_6vectorIaLj32EEEaEENS_17operand_base_typeINS1_5utils10remove_allIT_E4typeEE4typeERKSA_RKT0_T1_(%"class.aie::detail::accum"* sret(%"class.aie::detail::accum") align 32 %tmp20, %"class.aie::detail::accum"* nonnull align 32 dereferenceable(256) %acc1, %"class.aie::detail::vector"* nonnull align 32 dereferenceable(32) %data3, i8 signext 2) #26, !dbg !1341
  %46 = load %"class.aie::detail::accum", %"class.aie::detail::accum"* %tmp20, align 32, !dbg !1341, !tbaa !1319
  store %"class.aie::detail::accum" %46, %"class.aie::detail::accum"* %acc1, align 32, !dbg !1341, !tbaa !1319
  %47 = bitcast %"class.aie::detail::accum"* %tmp20 to i8*, !dbg !1341
  call addrspace(1) void @llvm.lifetime.end.p0i8(i64 256, i8* %47) #24, !dbg !1341
  %48 = bitcast %"class.aie::detail::vector"* %tmp21 to i8*, !dbg !1342
  call addrspace(1) void @llvm.lifetime.start.p0i8(i64 32, i8* %48) #24, !dbg !1342
  %call22 = call addrspace(1) %"class.aie::detail::vector" @_Z17window_readincr_vILj32EL15aie_dm_resource0EaEN3aie6detail6vectorIT1_XT_EEEP12input_windowIS4_E(%struct.input_window.1* %in) #26, !dbg !1342
  %49 = getelementptr inbounds %"class.aie::detail::vector", %"class.aie::detail::vector"* %tmp21, i32 0, i32 0, !dbg !1342
  %50 = extractvalue %"class.aie::detail::vector" %call22, 0, !dbg !1342
  store %struct.ipd.custom_type.v32int8.v32int8 %50, %struct.ipd.custom_type.v32int8.v32int8* %49, align 32, !dbg !1342
  %51 = load %"class.aie::detail::vector", %"class.aie::detail::vector"* %tmp21, align 32, !dbg !1342, !tbaa !1310
  store %"class.aie::detail::vector" %51, %"class.aie::detail::vector"* %data1, align 32, !dbg !1342, !tbaa !1310
  %52 = bitcast %"class.aie::detail::vector"* %tmp21 to i8*, !dbg !1342
  call addrspace(1) void @llvm.lifetime.end.p0i8(i64 32, i8* %52) #24, !dbg !1342
  %53 = bitcast %"class.aie::detail::vector"* %tmp23 to i8*, !dbg !1343
  call addrspace(1) void @llvm.lifetime.start.p0i8(i64 32, i8* %53) #24, !dbg !1343
  %call24 = call addrspace(1) %"class.aie::detail::vector" @_Z17window_readincr_vILj32EL15aie_dm_resource0EaEN3aie6detail6vectorIT1_XT_EEEP12input_windowIS4_E(%struct.input_window.1* %in) #26, !dbg !1343
  %54 = getelementptr inbounds %"class.aie::detail::vector", %"class.aie::detail::vector"* %tmp23, i32 0, i32 0, !dbg !1343
  %55 = extractvalue %"class.aie::detail::vector" %call24, 0, !dbg !1343
  store %struct.ipd.custom_type.v32int8.v32int8 %55, %struct.ipd.custom_type.v32int8.v32int8* %54, align 32, !dbg !1343
  %56 = load %"class.aie::detail::vector", %"class.aie::detail::vector"* %tmp23, align 32, !dbg !1343, !tbaa !1310
  store %"class.aie::detail::vector" %56, %"class.aie::detail::vector"* %data2, align 32, !dbg !1343, !tbaa !1310
  %57 = bitcast %"class.aie::detail::vector"* %tmp23 to i8*, !dbg !1343
  call addrspace(1) void @llvm.lifetime.end.p0i8(i64 32, i8* %57) #24, !dbg !1343
  %58 = bitcast %"class.aie::detail::vector"* %tmp25 to i8*, !dbg !1344
  call addrspace(1) void @llvm.lifetime.start.p0i8(i64 32, i8* %58) #24, !dbg !1344
  %call26 = call addrspace(1) %"class.aie::detail::vector" @_Z17window_readincr_vILj32EL15aie_dm_resource0EaEN3aie6detail6vectorIT1_XT_EEEP12input_windowIS4_E(%struct.input_window.1* %in) #26, !dbg !1344
  %59 = getelementptr inbounds %"class.aie::detail::vector", %"class.aie::detail::vector"* %tmp25, i32 0, i32 0, !dbg !1344
  %60 = extractvalue %"class.aie::detail::vector" %call26, 0, !dbg !1344
  store %struct.ipd.custom_type.v32int8.v32int8 %60, %struct.ipd.custom_type.v32int8.v32int8* %59, align 32, !dbg !1344
  %61 = load %"class.aie::detail::vector", %"class.aie::detail::vector"* %tmp25, align 32, !dbg !1344, !tbaa !1310
  store %"class.aie::detail::vector" %61, %"class.aie::detail::vector"* %data3, align 32, !dbg !1344, !tbaa !1310
  %62 = bitcast %"class.aie::detail::vector"* %tmp25 to i8*, !dbg !1344
  call addrspace(1) void @llvm.lifetime.end.p0i8(i64 32, i8* %62) #24, !dbg !1344
  %63 = bitcast %"class.aie::detail::accum"* %tmp27 to i8*, !dbg !1345
  call addrspace(1) void @llvm.lifetime.start.p0i8(i64 256, i8* %63) #24, !dbg !1345
  call addrspace(1) void @_ZN3aie3macINS_6detail5accumILNS1_10AccumClassE0ELj32ELj32EEENS1_6vectorIaLj32EEEaEENS_17operand_base_typeINS1_5utils10remove_allIT_E4typeEE4typeERKSA_RKT0_T1_(%"class.aie::detail::accum"* sret(%"class.aie::detail::accum") align 32 %tmp27, %"class.aie::detail::accum"* nonnull align 32 dereferenceable(256) %acc1, %"class.aie::detail::vector"* nonnull align 32 dereferenceable(32) %data1, i8 signext 3) #26, !dbg !1345
  %64 = load %"class.aie::detail::accum", %"class.aie::detail::accum"* %tmp27, align 32, !dbg !1345, !tbaa !1319
  store %"class.aie::detail::accum" %64, %"class.aie::detail::accum"* %acc1, align 32, !dbg !1345, !tbaa !1319
  %65 = bitcast %"class.aie::detail::accum"* %tmp27 to i8*, !dbg !1345
  call addrspace(1) void @llvm.lifetime.end.p0i8(i64 256, i8* %65) #24, !dbg !1345
  %66 = bitcast %"class.aie::detail::accum"* %tmp28 to i8*, !dbg !1346
  call addrspace(1) void @llvm.lifetime.start.p0i8(i64 256, i8* %66) #24, !dbg !1346
  call addrspace(1) void @_ZN3aie3macINS_6detail5accumILNS1_10AccumClassE0ELj32ELj32EEENS1_6vectorIaLj32EEEaEENS_17operand_base_typeINS1_5utils10remove_allIT_E4typeEE4typeERKSA_RKT0_T1_(%"class.aie::detail::accum"* sret(%"class.aie::detail::accum") align 32 %tmp28, %"class.aie::detail::accum"* nonnull align 32 dereferenceable(256) %acc1, %"class.aie::detail::vector"* nonnull align 32 dereferenceable(32) %data2, i8 signext 4) #26, !dbg !1346
  %67 = load %"class.aie::detail::accum", %"class.aie::detail::accum"* %tmp28, align 32, !dbg !1346, !tbaa !1319
  store %"class.aie::detail::accum" %67, %"class.aie::detail::accum"* %acc1, align 32, !dbg !1346, !tbaa !1319
  %68 = bitcast %"class.aie::detail::accum"* %tmp28 to i8*, !dbg !1346
  call addrspace(1) void @llvm.lifetime.end.p0i8(i64 256, i8* %68) #24, !dbg !1346
  %69 = bitcast %"class.aie::detail::accum"* %tmp29 to i8*, !dbg !1347
  call addrspace(1) void @llvm.lifetime.start.p0i8(i64 256, i8* %69) #24, !dbg !1347
  call addrspace(1) void @_ZN3aie3macINS_6detail5accumILNS1_10AccumClassE0ELj32ELj32EEENS1_6vectorIaLj32EEEaEENS_17operand_base_typeINS1_5utils10remove_allIT_E4typeEE4typeERKSA_RKT0_T1_(%"class.aie::detail::accum"* sret(%"class.aie::detail::accum") align 32 %tmp29, %"class.aie::detail::accum"* nonnull align 32 dereferenceable(256) %acc1, %"class.aie::detail::vector"* nonnull align 32 dereferenceable(32) %data3, i8 signext 5) #26, !dbg !1347
  %70 = load %"class.aie::detail::accum", %"class.aie::detail::accum"* %tmp29, align 32, !dbg !1347, !tbaa !1319
  store %"class.aie::detail::accum" %70, %"class.aie::detail::accum"* %acc1, align 32, !dbg !1347, !tbaa !1319
  %71 = bitcast %"class.aie::detail::accum"* %tmp29 to i8*, !dbg !1347
  call addrspace(1) void @llvm.lifetime.end.p0i8(i64 256, i8* %71) #24, !dbg !1347
  %72 = bitcast %"class.aie::detail::accum"* %tmp30 to i8*, !dbg !1348
  call addrspace(1) void @llvm.lifetime.start.p0i8(i64 256, i8* %72) #24, !dbg !1348
  call addrspace(1) void @_ZN3aie3macINS_6detail5accumILNS1_10AccumClassE0ELj32ELj32EEENS1_6vectorIaLj32EEEaEENS_17operand_base_typeINS1_5utils10remove_allIT_E4typeEE4typeERKSA_RKT0_T1_(%"class.aie::detail::accum"* sret(%"class.aie::detail::accum") align 32 %tmp30, %"class.aie::detail::accum"* nonnull align 32 dereferenceable(256) %acc2, %"class.aie::detail::vector"* nonnull align 32 dereferenceable(32) %data1, i8 signext 0) #26, !dbg !1348
  %73 = load %"class.aie::detail::accum", %"class.aie::detail::accum"* %tmp30, align 32, !dbg !1348, !tbaa !1319
  store %"class.aie::detail::accum" %73, %"class.aie::detail::accum"* %acc2, align 32, !dbg !1348, !tbaa !1319
  %74 = bitcast %"class.aie::detail::accum"* %tmp30 to i8*, !dbg !1348
  call addrspace(1) void @llvm.lifetime.end.p0i8(i64 256, i8* %74) #24, !dbg !1348
  %75 = bitcast %"class.aie::detail::accum"* %tmp31 to i8*, !dbg !1349
  call addrspace(1) void @llvm.lifetime.start.p0i8(i64 256, i8* %75) #24, !dbg !1349
  call addrspace(1) void @_ZN3aie3macINS_6detail5accumILNS1_10AccumClassE0ELj32ELj32EEENS1_6vectorIaLj32EEEaEENS_17operand_base_typeINS1_5utils10remove_allIT_E4typeEE4typeERKSA_RKT0_T1_(%"class.aie::detail::accum"* sret(%"class.aie::detail::accum") align 32 %tmp31, %"class.aie::detail::accum"* nonnull align 32 dereferenceable(256) %acc2, %"class.aie::detail::vector"* nonnull align 32 dereferenceable(32) %data2, i8 signext 1) #26, !dbg !1349
  %76 = load %"class.aie::detail::accum", %"class.aie::detail::accum"* %tmp31, align 32, !dbg !1349, !tbaa !1319
  store %"class.aie::detail::accum" %76, %"class.aie::detail::accum"* %acc2, align 32, !dbg !1349, !tbaa !1319
  %77 = bitcast %"class.aie::detail::accum"* %tmp31 to i8*, !dbg !1349
  call addrspace(1) void @llvm.lifetime.end.p0i8(i64 256, i8* %77) #24, !dbg !1349
  %78 = bitcast %"class.aie::detail::accum"* %tmp32 to i8*, !dbg !1350
  call addrspace(1) void @llvm.lifetime.start.p0i8(i64 256, i8* %78) #24, !dbg !1350
  call addrspace(1) void @_ZN3aie3macINS_6detail5accumILNS1_10AccumClassE0ELj32ELj32EEENS1_6vectorIaLj32EEEaEENS_17operand_base_typeINS1_5utils10remove_allIT_E4typeEE4typeERKSA_RKT0_T1_(%"class.aie::detail::accum"* sret(%"class.aie::detail::accum") align 32 %tmp32, %"class.aie::detail::accum"* nonnull align 32 dereferenceable(256) %acc2, %"class.aie::detail::vector"* nonnull align 32 dereferenceable(32) %data3, i8 signext 2) #26, !dbg !1350
  %79 = load %"class.aie::detail::accum", %"class.aie::detail::accum"* %tmp32, align 32, !dbg !1350, !tbaa !1319
  store %"class.aie::detail::accum" %79, %"class.aie::detail::accum"* %acc2, align 32, !dbg !1350, !tbaa !1319
  %80 = bitcast %"class.aie::detail::accum"* %tmp32 to i8*, !dbg !1350
  call addrspace(1) void @llvm.lifetime.end.p0i8(i64 256, i8* %80) #24, !dbg !1350
  call addrspace(1) void @llvm.dbg.value(metadata i32 undef, metadata !1305, metadata !DIExpression()), !dbg !1351
  call addrspace(1) void @llvm.dbg.value(metadata i32 0, metadata !1305, metadata !DIExpression()), !dbg !1351
  br label %for.body, !dbg !1352

for.body:                                         ; preds = %for.body, %entry
  %i.01 = phi i32 [ 0, %entry ], [ %inc, %for.body ]
  call addrspace(1) void @llvm.dbg.value(metadata i32 %i.01, metadata !1305, metadata !DIExpression()), !dbg !1351
  %81 = bitcast %"class.aie::detail::vector"* %tmp33 to i8*, !dbg !1353
  call addrspace(1) void @llvm.lifetime.start.p0i8(i64 32, i8* %81) #24, !dbg !1353
  %call34 = call addrspace(1) %"class.aie::detail::vector" @_Z17window_readincr_vILj32EL15aie_dm_resource0EaEN3aie6detail6vectorIT1_XT_EEEP12input_windowIS4_E(%struct.input_window.1* %in) #26, !dbg !1353
  %82 = getelementptr inbounds %"class.aie::detail::vector", %"class.aie::detail::vector"* %tmp33, i32 0, i32 0, !dbg !1353
  %83 = extractvalue %"class.aie::detail::vector" %call34, 0, !dbg !1353
  store %struct.ipd.custom_type.v32int8.v32int8 %83, %struct.ipd.custom_type.v32int8.v32int8* %82, align 32, !dbg !1353
  %84 = load %"class.aie::detail::vector", %"class.aie::detail::vector"* %tmp33, align 32, !dbg !1353, !tbaa !1310
  store %"class.aie::detail::vector" %84, %"class.aie::detail::vector"* %data1, align 32, !dbg !1353, !tbaa !1310
  %85 = bitcast %"class.aie::detail::vector"* %tmp33 to i8*, !dbg !1353
  call addrspace(1) void @llvm.lifetime.end.p0i8(i64 32, i8* %85) #24, !dbg !1353
  %86 = bitcast %"class.aie::detail::vector"* %tmp35 to i8*, !dbg !1356
  call addrspace(1) void @llvm.lifetime.start.p0i8(i64 32, i8* %86) #24, !dbg !1356
  %call36 = call addrspace(1) %"class.aie::detail::vector" @_Z17window_readincr_vILj32EL15aie_dm_resource0EaEN3aie6detail6vectorIT1_XT_EEEP12input_windowIS4_E(%struct.input_window.1* %in) #26, !dbg !1356
  %87 = getelementptr inbounds %"class.aie::detail::vector", %"class.aie::detail::vector"* %tmp35, i32 0, i32 0, !dbg !1356
  %88 = extractvalue %"class.aie::detail::vector" %call36, 0, !dbg !1356
  store %struct.ipd.custom_type.v32int8.v32int8 %88, %struct.ipd.custom_type.v32int8.v32int8* %87, align 32, !dbg !1356
  %89 = load %"class.aie::detail::vector", %"class.aie::detail::vector"* %tmp35, align 32, !dbg !1356, !tbaa !1310
  store %"class.aie::detail::vector" %89, %"class.aie::detail::vector"* %data2, align 32, !dbg !1356, !tbaa !1310
  %90 = bitcast %"class.aie::detail::vector"* %tmp35 to i8*, !dbg !1356
  call addrspace(1) void @llvm.lifetime.end.p0i8(i64 32, i8* %90) #24, !dbg !1356
  %91 = bitcast %"class.aie::detail::vector"* %tmp37 to i8*, !dbg !1357
  call addrspace(1) void @llvm.lifetime.start.p0i8(i64 32, i8* %91) #24, !dbg !1357
  %call38 = call addrspace(1) %"class.aie::detail::vector" @_Z17window_readincr_vILj32EL15aie_dm_resource0EaEN3aie6detail6vectorIT1_XT_EEEP12input_windowIS4_E(%struct.input_window.1* %in) #26, !dbg !1357
  %92 = getelementptr inbounds %"class.aie::detail::vector", %"class.aie::detail::vector"* %tmp37, i32 0, i32 0, !dbg !1357
  %93 = extractvalue %"class.aie::detail::vector" %call38, 0, !dbg !1357
  store %struct.ipd.custom_type.v32int8.v32int8 %93, %struct.ipd.custom_type.v32int8.v32int8* %92, align 32, !dbg !1357
  %94 = load %"class.aie::detail::vector", %"class.aie::detail::vector"* %tmp37, align 32, !dbg !1357, !tbaa !1310
  store %"class.aie::detail::vector" %94, %"class.aie::detail::vector"* %data3, align 32, !dbg !1357, !tbaa !1310
  %95 = bitcast %"class.aie::detail::vector"* %tmp37 to i8*, !dbg !1357
  call addrspace(1) void @llvm.lifetime.end.p0i8(i64 32, i8* %95) #24, !dbg !1357
  %96 = bitcast %"class.aie::detail::accum"* %tmp39 to i8*, !dbg !1358
  call addrspace(1) void @llvm.lifetime.start.p0i8(i64 256, i8* %96) #24, !dbg !1358
  call addrspace(1) void @_ZN3aie3macINS_6detail5accumILNS1_10AccumClassE0ELj32ELj32EEENS1_6vectorIaLj32EEEaEENS_17operand_base_typeINS1_5utils10remove_allIT_E4typeEE4typeERKSA_RKT0_T1_(%"class.aie::detail::accum"* sret(%"class.aie::detail::accum") align 32 %tmp39, %"class.aie::detail::accum"* nonnull align 32 dereferenceable(256) %acc1, %"class.aie::detail::vector"* nonnull align 32 dereferenceable(32) %data1, i8 signext 6) #26, !dbg !1358
  %97 = load %"class.aie::detail::accum", %"class.aie::detail::accum"* %tmp39, align 32, !dbg !1358, !tbaa !1319
  store %"class.aie::detail::accum" %97, %"class.aie::detail::accum"* %acc1, align 32, !dbg !1358, !tbaa !1319
  %98 = bitcast %"class.aie::detail::accum"* %tmp39 to i8*, !dbg !1358
  call addrspace(1) void @llvm.lifetime.end.p0i8(i64 256, i8* %98) #24, !dbg !1358
  %99 = bitcast %"class.aie::detail::accum"* %tmp40 to i8*, !dbg !1359
  call addrspace(1) void @llvm.lifetime.start.p0i8(i64 256, i8* %99) #24, !dbg !1359
  call addrspace(1) void @_ZN3aie3macINS_6detail5accumILNS1_10AccumClassE0ELj32ELj32EEENS1_6vectorIaLj32EEEaEENS_17operand_base_typeINS1_5utils10remove_allIT_E4typeEE4typeERKSA_RKT0_T1_(%"class.aie::detail::accum"* sret(%"class.aie::detail::accum") align 32 %tmp40, %"class.aie::detail::accum"* nonnull align 32 dereferenceable(256) %acc1, %"class.aie::detail::vector"* nonnull align 32 dereferenceable(32) %data2, i8 signext 7) #26, !dbg !1359
  %100 = load %"class.aie::detail::accum", %"class.aie::detail::accum"* %tmp40, align 32, !dbg !1359, !tbaa !1319
  store %"class.aie::detail::accum" %100, %"class.aie::detail::accum"* %acc1, align 32, !dbg !1359, !tbaa !1319
  %101 = bitcast %"class.aie::detail::accum"* %tmp40 to i8*, !dbg !1359
  call addrspace(1) void @llvm.lifetime.end.p0i8(i64 256, i8* %101) #24, !dbg !1359
  %102 = bitcast %"class.aie::detail::accum"* %tmp41 to i8*, !dbg !1360
  call addrspace(1) void @llvm.lifetime.start.p0i8(i64 256, i8* %102) #24, !dbg !1360
  call addrspace(1) void @_ZN3aie3macINS_6detail5accumILNS1_10AccumClassE0ELj32ELj32EEENS1_6vectorIaLj32EEEaEENS_17operand_base_typeINS1_5utils10remove_allIT_E4typeEE4typeERKSA_RKT0_T1_(%"class.aie::detail::accum"* sret(%"class.aie::detail::accum") align 32 %tmp41, %"class.aie::detail::accum"* nonnull align 32 dereferenceable(256) %acc1, %"class.aie::detail::vector"* nonnull align 32 dereferenceable(32) %data3, i8 signext 8) #26, !dbg !1360
  %103 = load %"class.aie::detail::accum", %"class.aie::detail::accum"* %tmp41, align 32, !dbg !1360, !tbaa !1319
  store %"class.aie::detail::accum" %103, %"class.aie::detail::accum"* %acc1, align 32, !dbg !1360, !tbaa !1319
  %104 = bitcast %"class.aie::detail::accum"* %tmp41 to i8*, !dbg !1360
  call addrspace(1) void @llvm.lifetime.end.p0i8(i64 256, i8* %104) #24, !dbg !1360
  %105 = bitcast %"class.aie::detail::accum"* %tmp42 to i8*, !dbg !1361
  call addrspace(1) void @llvm.lifetime.start.p0i8(i64 256, i8* %105) #24, !dbg !1361
  call addrspace(1) void @_ZN3aie3macINS_6detail5accumILNS1_10AccumClassE0ELj32ELj32EEENS1_6vectorIaLj32EEEaEENS_17operand_base_typeINS1_5utils10remove_allIT_E4typeEE4typeERKSA_RKT0_T1_(%"class.aie::detail::accum"* sret(%"class.aie::detail::accum") align 32 %tmp42, %"class.aie::detail::accum"* nonnull align 32 dereferenceable(256) %acc2, %"class.aie::detail::vector"* nonnull align 32 dereferenceable(32) %data1, i8 signext 3) #26, !dbg !1361
  %106 = load %"class.aie::detail::accum", %"class.aie::detail::accum"* %tmp42, align 32, !dbg !1361, !tbaa !1319
  store %"class.aie::detail::accum" %106, %"class.aie::detail::accum"* %acc2, align 32, !dbg !1361, !tbaa !1319
  %107 = bitcast %"class.aie::detail::accum"* %tmp42 to i8*, !dbg !1361
  call addrspace(1) void @llvm.lifetime.end.p0i8(i64 256, i8* %107) #24, !dbg !1361
  %108 = bitcast %"class.aie::detail::accum"* %tmp43 to i8*, !dbg !1362
  call addrspace(1) void @llvm.lifetime.start.p0i8(i64 256, i8* %108) #24, !dbg !1362
  call addrspace(1) void @_ZN3aie3macINS_6detail5accumILNS1_10AccumClassE0ELj32ELj32EEENS1_6vectorIaLj32EEEaEENS_17operand_base_typeINS1_5utils10remove_allIT_E4typeEE4typeERKSA_RKT0_T1_(%"class.aie::detail::accum"* sret(%"class.aie::detail::accum") align 32 %tmp43, %"class.aie::detail::accum"* nonnull align 32 dereferenceable(256) %acc2, %"class.aie::detail::vector"* nonnull align 32 dereferenceable(32) %data2, i8 signext 4) #26, !dbg !1362
  %109 = load %"class.aie::detail::accum", %"class.aie::detail::accum"* %tmp43, align 32, !dbg !1362, !tbaa !1319
  store %"class.aie::detail::accum" %109, %"class.aie::detail::accum"* %acc2, align 32, !dbg !1362, !tbaa !1319
  %110 = bitcast %"class.aie::detail::accum"* %tmp43 to i8*, !dbg !1362
  call addrspace(1) void @llvm.lifetime.end.p0i8(i64 256, i8* %110) #24, !dbg !1362
  %111 = bitcast %"class.aie::detail::accum"* %tmp44 to i8*, !dbg !1363
  call addrspace(1) void @llvm.lifetime.start.p0i8(i64 256, i8* %111) #24, !dbg !1363
  call addrspace(1) void @_ZN3aie3macINS_6detail5accumILNS1_10AccumClassE0ELj32ELj32EEENS1_6vectorIaLj32EEEaEENS_17operand_base_typeINS1_5utils10remove_allIT_E4typeEE4typeERKSA_RKT0_T1_(%"class.aie::detail::accum"* sret(%"class.aie::detail::accum") align 32 %tmp44, %"class.aie::detail::accum"* nonnull align 32 dereferenceable(256) %acc2, %"class.aie::detail::vector"* nonnull align 32 dereferenceable(32) %data3, i8 signext 5) #26, !dbg !1363
  %112 = load %"class.aie::detail::accum", %"class.aie::detail::accum"* %tmp44, align 32, !dbg !1363, !tbaa !1319
  store %"class.aie::detail::accum" %112, %"class.aie::detail::accum"* %acc2, align 32, !dbg !1363, !tbaa !1319
  %113 = bitcast %"class.aie::detail::accum"* %tmp44 to i8*, !dbg !1363
  call addrspace(1) void @llvm.lifetime.end.p0i8(i64 256, i8* %113) #24, !dbg !1363
  %114 = bitcast %"class.aie::detail::accum"* %tmp45 to i8*, !dbg !1364
  call addrspace(1) void @llvm.lifetime.start.p0i8(i64 256, i8* %114) #24, !dbg !1364
  call addrspace(1) void @_ZN3aie3macINS_6detail5accumILNS1_10AccumClassE0ELj32ELj32EEENS1_6vectorIaLj32EEEaEENS_17operand_base_typeINS1_5utils10remove_allIT_E4typeEE4typeERKSA_RKT0_T1_(%"class.aie::detail::accum"* sret(%"class.aie::detail::accum") align 32 %tmp45, %"class.aie::detail::accum"* nonnull align 32 dereferenceable(256) %acc3, %"class.aie::detail::vector"* nonnull align 32 dereferenceable(32) %data1, i8 signext 0) #26, !dbg !1364
  %115 = load %"class.aie::detail::accum", %"class.aie::detail::accum"* %tmp45, align 32, !dbg !1364, !tbaa !1319
  store %"class.aie::detail::accum" %115, %"class.aie::detail::accum"* %acc3, align 32, !dbg !1364, !tbaa !1319
  %116 = bitcast %"class.aie::detail::accum"* %tmp45 to i8*, !dbg !1364
  call addrspace(1) void @llvm.lifetime.end.p0i8(i64 256, i8* %116) #24, !dbg !1364
  %117 = bitcast %"class.aie::detail::accum"* %tmp46 to i8*, !dbg !1365
  call addrspace(1) void @llvm.lifetime.start.p0i8(i64 256, i8* %117) #24, !dbg !1365
  call addrspace(1) void @_ZN3aie3macINS_6detail5accumILNS1_10AccumClassE0ELj32ELj32EEENS1_6vectorIaLj32EEEaEENS_17operand_base_typeINS1_5utils10remove_allIT_E4typeEE4typeERKSA_RKT0_T1_(%"class.aie::detail::accum"* sret(%"class.aie::detail::accum") align 32 %tmp46, %"class.aie::detail::accum"* nonnull align 32 dereferenceable(256) %acc3, %"class.aie::detail::vector"* nonnull align 32 dereferenceable(32) %data2, i8 signext 1) #26, !dbg !1365
  %118 = load %"class.aie::detail::accum", %"class.aie::detail::accum"* %tmp46, align 32, !dbg !1365, !tbaa !1319
  store %"class.aie::detail::accum" %118, %"class.aie::detail::accum"* %acc3, align 32, !dbg !1365, !tbaa !1319
  %119 = bitcast %"class.aie::detail::accum"* %tmp46 to i8*, !dbg !1365
  call addrspace(1) void @llvm.lifetime.end.p0i8(i64 256, i8* %119) #24, !dbg !1365
  %120 = bitcast %"class.aie::detail::accum"* %tmp47 to i8*, !dbg !1366
  call addrspace(1) void @llvm.lifetime.start.p0i8(i64 256, i8* %120) #24, !dbg !1366
  call addrspace(1) void @_ZN3aie3macINS_6detail5accumILNS1_10AccumClassE0ELj32ELj32EEENS1_6vectorIaLj32EEEaEENS_17operand_base_typeINS1_5utils10remove_allIT_E4typeEE4typeERKSA_RKT0_T1_(%"class.aie::detail::accum"* sret(%"class.aie::detail::accum") align 32 %tmp47, %"class.aie::detail::accum"* nonnull align 32 dereferenceable(256) %acc3, %"class.aie::detail::vector"* nonnull align 32 dereferenceable(32) %data3, i8 signext 2) #26, !dbg !1366
  %121 = load %"class.aie::detail::accum", %"class.aie::detail::accum"* %tmp47, align 32, !dbg !1366, !tbaa !1319
  store %"class.aie::detail::accum" %121, %"class.aie::detail::accum"* %acc3, align 32, !dbg !1366, !tbaa !1319
  %122 = bitcast %"class.aie::detail::accum"* %tmp47 to i8*, !dbg !1366
  call addrspace(1) void @llvm.lifetime.end.p0i8(i64 256, i8* %122) #24, !dbg !1366
  %123 = bitcast %"class.aie::detail::vector"* %ref.tmp48 to i8*, !dbg !1367
  call addrspace(1) void @llvm.lifetime.start.p0i8(i64 32, i8* %123) #24, !dbg !1367
  %call49 = call addrspace(1) %"class.aie::detail::vector" @_ZNK3aie6detail5accumILNS0_10AccumClassE0ELj32ELj32EE9to_vectorIaEENS0_6vectorIT_Lj32EEEi(%"class.aie::detail::accum"* nonnull dereferenceable(256) %acc1, i32 0) #26, !dbg !1368
  %124 = getelementptr inbounds %"class.aie::detail::vector", %"class.aie::detail::vector"* %ref.tmp48, i32 0, i32 0, !dbg !1368
  %125 = extractvalue %"class.aie::detail::vector" %call49, 0, !dbg !1368
  store %struct.ipd.custom_type.v32int8.v32int8 %125, %struct.ipd.custom_type.v32int8.v32int8* %124, align 32, !dbg !1368
  call addrspace(1) void @_Z16window_writeincrIL15aie_dm_resource0ELj32EaEvP13output_windowIT1_ERKN3aie6detail6vectorIS2_XT0_EEE(%struct.output_window.2* %out, %"class.aie::detail::vector"* nonnull align 32 dereferenceable(32) %ref.tmp48) #26, !dbg !1369
  %126 = bitcast %"class.aie::detail::vector"* %ref.tmp48 to i8*, !dbg !1369
  call addrspace(1) void @llvm.lifetime.end.p0i8(i64 32, i8* %126) #24, !dbg !1369
  %127 = load %"class.aie::detail::accum", %"class.aie::detail::accum"* %acc2, align 32, !dbg !1370, !tbaa !1319
  store %"class.aie::detail::accum" %127, %"class.aie::detail::accum"* %acc1, align 32, !dbg !1370, !tbaa !1319
  %128 = load %"class.aie::detail::accum", %"class.aie::detail::accum"* %acc3, align 32, !dbg !1371, !tbaa !1319
  store %"class.aie::detail::accum" %128, %"class.aie::detail::accum"* %acc2, align 32, !dbg !1371, !tbaa !1319
  %129 = bitcast %"class.aie::detail::vector"* %ref.tmp50 to i8*, !dbg !1372
  call addrspace(1) void @llvm.lifetime.start.p0i8(i64 32, i8* %129) #24, !dbg !1372
  %call51 = call addrspace(1) %"class.aie::detail::vector" @_ZN3aie5zerosIaLj32EEENS_6detail6vectorIT_XT0_EEEv() #26, !dbg !1372
  %130 = getelementptr inbounds %"class.aie::detail::vector", %"class.aie::detail::vector"* %ref.tmp50, i32 0, i32 0, !dbg !1372
  %131 = extractvalue %"class.aie::detail::vector" %call51, 0, !dbg !1372
  store %struct.ipd.custom_type.v32int8.v32int8 %131, %struct.ipd.custom_type.v32int8.v32int8* %130, align 32, !dbg !1372
  %call52 = call nonnull align 32 dereferenceable(256) addrspace(1) %"class.aie::detail::accum"* @_ZN3aie6detail5accumILNS0_10AccumClassE0ELj32ELj32EEaSIaEERS3_RKNS0_6vectorIT_Lj32EEE(%"class.aie::detail::accum"* nonnull dereferenceable(256) %acc3, %"class.aie::detail::vector"* nonnull align 32 dereferenceable(32) %ref.tmp50) #26, !dbg !1373
  %132 = bitcast %"class.aie::detail::vector"* %ref.tmp50 to i8*, !dbg !1374
  call addrspace(1) void @llvm.lifetime.end.p0i8(i64 32, i8* %132) #24, !dbg !1374
  %inc = add nuw nsw i32 %i.01, 1, !dbg !1375
  call addrspace(1) void @llvm.dbg.value(metadata i32 %inc, metadata !1305, metadata !DIExpression()), !dbg !1351
  %exitcond = icmp ne i32 %inc, 60, !dbg !1376
  br i1 %exitcond, label %for.body, label %for.end, !dbg !1352, !llvm.loop !1377

for.end:                                          ; preds = %for.body
  %133 = bitcast %"class.aie::detail::vector"* %tmp53 to i8*, !dbg !1382
  call addrspace(1) void @llvm.lifetime.start.p0i8(i64 32, i8* %133) #24, !dbg !1382
  %call54 = call addrspace(1) %"class.aie::detail::vector" @_Z17window_readincr_vILj32EL15aie_dm_resource0EaEN3aie6detail6vectorIT1_XT_EEEP12input_windowIS4_E(%struct.input_window.1* %in) #26, !dbg !1382
  %134 = getelementptr inbounds %"class.aie::detail::vector", %"class.aie::detail::vector"* %tmp53, i32 0, i32 0, !dbg !1382
  %135 = extractvalue %"class.aie::detail::vector" %call54, 0, !dbg !1382
  store %struct.ipd.custom_type.v32int8.v32int8 %135, %struct.ipd.custom_type.v32int8.v32int8* %134, align 32, !dbg !1382
  %136 = load %"class.aie::detail::vector", %"class.aie::detail::vector"* %tmp53, align 32, !dbg !1382, !tbaa !1310
  store %"class.aie::detail::vector" %136, %"class.aie::detail::vector"* %data1, align 32, !dbg !1382, !tbaa !1310
  %137 = bitcast %"class.aie::detail::vector"* %tmp53 to i8*, !dbg !1382
  call addrspace(1) void @llvm.lifetime.end.p0i8(i64 32, i8* %137) #24, !dbg !1382
  %138 = bitcast %"class.aie::detail::vector"* %tmp55 to i8*, !dbg !1383
  call addrspace(1) void @llvm.lifetime.start.p0i8(i64 32, i8* %138) #24, !dbg !1383
  %call56 = call addrspace(1) %"class.aie::detail::vector" @_Z17window_readincr_vILj32EL15aie_dm_resource0EaEN3aie6detail6vectorIT1_XT_EEEP12input_windowIS4_E(%struct.input_window.1* %in) #26, !dbg !1383
  %139 = getelementptr inbounds %"class.aie::detail::vector", %"class.aie::detail::vector"* %tmp55, i32 0, i32 0, !dbg !1383
  %140 = extractvalue %"class.aie::detail::vector" %call56, 0, !dbg !1383
  store %struct.ipd.custom_type.v32int8.v32int8 %140, %struct.ipd.custom_type.v32int8.v32int8* %139, align 32, !dbg !1383
  %141 = load %"class.aie::detail::vector", %"class.aie::detail::vector"* %tmp55, align 32, !dbg !1383, !tbaa !1310
  store %"class.aie::detail::vector" %141, %"class.aie::detail::vector"* %data2, align 32, !dbg !1383, !tbaa !1310
  %142 = bitcast %"class.aie::detail::vector"* %tmp55 to i8*, !dbg !1383
  call addrspace(1) void @llvm.lifetime.end.p0i8(i64 32, i8* %142) #24, !dbg !1383
  %143 = bitcast %"class.aie::detail::vector"* %tmp57 to i8*, !dbg !1384
  call addrspace(1) void @llvm.lifetime.start.p0i8(i64 32, i8* %143) #24, !dbg !1384
  %call58 = call addrspace(1) %"class.aie::detail::vector" @_Z17window_readincr_vILj32EL15aie_dm_resource0EaEN3aie6detail6vectorIT1_XT_EEEP12input_windowIS4_E(%struct.input_window.1* %in) #26, !dbg !1384
  %144 = getelementptr inbounds %"class.aie::detail::vector", %"class.aie::detail::vector"* %tmp57, i32 0, i32 0, !dbg !1384
  %145 = extractvalue %"class.aie::detail::vector" %call58, 0, !dbg !1384
  store %struct.ipd.custom_type.v32int8.v32int8 %145, %struct.ipd.custom_type.v32int8.v32int8* %144, align 32, !dbg !1384
  %146 = load %"class.aie::detail::vector", %"class.aie::detail::vector"* %tmp57, align 32, !dbg !1384, !tbaa !1310
  store %"class.aie::detail::vector" %146, %"class.aie::detail::vector"* %data3, align 32, !dbg !1384, !tbaa !1310
  %147 = bitcast %"class.aie::detail::vector"* %tmp57 to i8*, !dbg !1384
  call addrspace(1) void @llvm.lifetime.end.p0i8(i64 32, i8* %147) #24, !dbg !1384
  %148 = bitcast %"class.aie::detail::accum"* %tmp59 to i8*, !dbg !1385
  call addrspace(1) void @llvm.lifetime.start.p0i8(i64 256, i8* %148) #24, !dbg !1385
  call addrspace(1) void @_ZN3aie3macINS_6detail5accumILNS1_10AccumClassE0ELj32ELj32EEENS1_6vectorIaLj32EEEaEENS_17operand_base_typeINS1_5utils10remove_allIT_E4typeEE4typeERKSA_RKT0_T1_(%"class.aie::detail::accum"* sret(%"class.aie::detail::accum") align 32 %tmp59, %"class.aie::detail::accum"* nonnull align 32 dereferenceable(256) %acc1, %"class.aie::detail::vector"* nonnull align 32 dereferenceable(32) %data1, i8 signext 6) #26, !dbg !1385
  %149 = load %"class.aie::detail::accum", %"class.aie::detail::accum"* %tmp59, align 32, !dbg !1385, !tbaa !1319
  store %"class.aie::detail::accum" %149, %"class.aie::detail::accum"* %acc1, align 32, !dbg !1385, !tbaa !1319
  %150 = bitcast %"class.aie::detail::accum"* %tmp59 to i8*, !dbg !1385
  call addrspace(1) void @llvm.lifetime.end.p0i8(i64 256, i8* %150) #24, !dbg !1385
  %151 = bitcast %"class.aie::detail::accum"* %tmp60 to i8*, !dbg !1386
  call addrspace(1) void @llvm.lifetime.start.p0i8(i64 256, i8* %151) #24, !dbg !1386
  call addrspace(1) void @_ZN3aie3macINS_6detail5accumILNS1_10AccumClassE0ELj32ELj32EEENS1_6vectorIaLj32EEEaEENS_17operand_base_typeINS1_5utils10remove_allIT_E4typeEE4typeERKSA_RKT0_T1_(%"class.aie::detail::accum"* sret(%"class.aie::detail::accum") align 32 %tmp60, %"class.aie::detail::accum"* nonnull align 32 dereferenceable(256) %acc1, %"class.aie::detail::vector"* nonnull align 32 dereferenceable(32) %data2, i8 signext 7) #26, !dbg !1386
  %152 = load %"class.aie::detail::accum", %"class.aie::detail::accum"* %tmp60, align 32, !dbg !1386, !tbaa !1319
  store %"class.aie::detail::accum" %152, %"class.aie::detail::accum"* %acc1, align 32, !dbg !1386, !tbaa !1319
  %153 = bitcast %"class.aie::detail::accum"* %tmp60 to i8*, !dbg !1386
  call addrspace(1) void @llvm.lifetime.end.p0i8(i64 256, i8* %153) #24, !dbg !1386
  %154 = bitcast %"class.aie::detail::accum"* %tmp61 to i8*, !dbg !1387
  call addrspace(1) void @llvm.lifetime.start.p0i8(i64 256, i8* %154) #24, !dbg !1387
  call addrspace(1) void @_ZN3aie3macINS_6detail5accumILNS1_10AccumClassE0ELj32ELj32EEENS1_6vectorIaLj32EEEaEENS_17operand_base_typeINS1_5utils10remove_allIT_E4typeEE4typeERKSA_RKT0_T1_(%"class.aie::detail::accum"* sret(%"class.aie::detail::accum") align 32 %tmp61, %"class.aie::detail::accum"* nonnull align 32 dereferenceable(256) %acc1, %"class.aie::detail::vector"* nonnull align 32 dereferenceable(32) %data3, i8 signext 8) #26, !dbg !1387
  %155 = load %"class.aie::detail::accum", %"class.aie::detail::accum"* %tmp61, align 32, !dbg !1387, !tbaa !1319
  store %"class.aie::detail::accum" %155, %"class.aie::detail::accum"* %acc1, align 32, !dbg !1387, !tbaa !1319
  %156 = bitcast %"class.aie::detail::accum"* %tmp61 to i8*, !dbg !1387
  call addrspace(1) void @llvm.lifetime.end.p0i8(i64 256, i8* %156) #24, !dbg !1387
  %157 = bitcast %"class.aie::detail::accum"* %tmp62 to i8*, !dbg !1388
  call addrspace(1) void @llvm.lifetime.start.p0i8(i64 256, i8* %157) #24, !dbg !1388
  call addrspace(1) void @_ZN3aie3macINS_6detail5accumILNS1_10AccumClassE0ELj32ELj32EEENS1_6vectorIaLj32EEEaEENS_17operand_base_typeINS1_5utils10remove_allIT_E4typeEE4typeERKSA_RKT0_T1_(%"class.aie::detail::accum"* sret(%"class.aie::detail::accum") align 32 %tmp62, %"class.aie::detail::accum"* nonnull align 32 dereferenceable(256) %acc2, %"class.aie::detail::vector"* nonnull align 32 dereferenceable(32) %data1, i8 signext 3) #26, !dbg !1388
  %158 = load %"class.aie::detail::accum", %"class.aie::detail::accum"* %tmp62, align 32, !dbg !1388, !tbaa !1319
  store %"class.aie::detail::accum" %158, %"class.aie::detail::accum"* %acc2, align 32, !dbg !1388, !tbaa !1319
  %159 = bitcast %"class.aie::detail::accum"* %tmp62 to i8*, !dbg !1388
  call addrspace(1) void @llvm.lifetime.end.p0i8(i64 256, i8* %159) #24, !dbg !1388
  %160 = bitcast %"class.aie::detail::accum"* %tmp63 to i8*, !dbg !1389
  call addrspace(1) void @llvm.lifetime.start.p0i8(i64 256, i8* %160) #24, !dbg !1389
  call addrspace(1) void @_ZN3aie3macINS_6detail5accumILNS1_10AccumClassE0ELj32ELj32EEENS1_6vectorIaLj32EEEaEENS_17operand_base_typeINS1_5utils10remove_allIT_E4typeEE4typeERKSA_RKT0_T1_(%"class.aie::detail::accum"* sret(%"class.aie::detail::accum") align 32 %tmp63, %"class.aie::detail::accum"* nonnull align 32 dereferenceable(256) %acc2, %"class.aie::detail::vector"* nonnull align 32 dereferenceable(32) %data2, i8 signext 4) #26, !dbg !1389
  %161 = load %"class.aie::detail::accum", %"class.aie::detail::accum"* %tmp63, align 32, !dbg !1389, !tbaa !1319
  store %"class.aie::detail::accum" %161, %"class.aie::detail::accum"* %acc2, align 32, !dbg !1389, !tbaa !1319
  %162 = bitcast %"class.aie::detail::accum"* %tmp63 to i8*, !dbg !1389
  call addrspace(1) void @llvm.lifetime.end.p0i8(i64 256, i8* %162) #24, !dbg !1389
  %163 = bitcast %"class.aie::detail::accum"* %tmp64 to i8*, !dbg !1390
  call addrspace(1) void @llvm.lifetime.start.p0i8(i64 256, i8* %163) #24, !dbg !1390
  call addrspace(1) void @_ZN3aie3macINS_6detail5accumILNS1_10AccumClassE0ELj32ELj32EEENS1_6vectorIaLj32EEEaEENS_17operand_base_typeINS1_5utils10remove_allIT_E4typeEE4typeERKSA_RKT0_T1_(%"class.aie::detail::accum"* sret(%"class.aie::detail::accum") align 32 %tmp64, %"class.aie::detail::accum"* nonnull align 32 dereferenceable(256) %acc2, %"class.aie::detail::vector"* nonnull align 32 dereferenceable(32) %data3, i8 signext 5) #26, !dbg !1390
  %164 = load %"class.aie::detail::accum", %"class.aie::detail::accum"* %tmp64, align 32, !dbg !1390, !tbaa !1319
  store %"class.aie::detail::accum" %164, %"class.aie::detail::accum"* %acc2, align 32, !dbg !1390, !tbaa !1319
  %165 = bitcast %"class.aie::detail::accum"* %tmp64 to i8*, !dbg !1390
  call addrspace(1) void @llvm.lifetime.end.p0i8(i64 256, i8* %165) #24, !dbg !1390
  %166 = bitcast %"class.aie::detail::vector"* %tmp65 to i8*, !dbg !1391
  call addrspace(1) void @llvm.lifetime.start.p0i8(i64 32, i8* %166) #24, !dbg !1391
  %call66 = call addrspace(1) %"class.aie::detail::vector" @_Z17window_readincr_vILj32EL15aie_dm_resource0EaEN3aie6detail6vectorIT1_XT_EEEP12input_windowIS4_E(%struct.input_window.1* %in) #26, !dbg !1391
  %167 = getelementptr inbounds %"class.aie::detail::vector", %"class.aie::detail::vector"* %tmp65, i32 0, i32 0, !dbg !1391
  %168 = extractvalue %"class.aie::detail::vector" %call66, 0, !dbg !1391
  store %struct.ipd.custom_type.v32int8.v32int8 %168, %struct.ipd.custom_type.v32int8.v32int8* %167, align 32, !dbg !1391
  %169 = load %"class.aie::detail::vector", %"class.aie::detail::vector"* %tmp65, align 32, !dbg !1391, !tbaa !1310
  store %"class.aie::detail::vector" %169, %"class.aie::detail::vector"* %data1, align 32, !dbg !1391, !tbaa !1310
  %170 = bitcast %"class.aie::detail::vector"* %tmp65 to i8*, !dbg !1391
  call addrspace(1) void @llvm.lifetime.end.p0i8(i64 32, i8* %170) #24, !dbg !1391
  %171 = bitcast %"class.aie::detail::vector"* %tmp67 to i8*, !dbg !1392
  call addrspace(1) void @llvm.lifetime.start.p0i8(i64 32, i8* %171) #24, !dbg !1392
  %call68 = call addrspace(1) %"class.aie::detail::vector" @_Z17window_readincr_vILj32EL15aie_dm_resource0EaEN3aie6detail6vectorIT1_XT_EEEP12input_windowIS4_E(%struct.input_window.1* %in) #26, !dbg !1392
  %172 = getelementptr inbounds %"class.aie::detail::vector", %"class.aie::detail::vector"* %tmp67, i32 0, i32 0, !dbg !1392
  %173 = extractvalue %"class.aie::detail::vector" %call68, 0, !dbg !1392
  store %struct.ipd.custom_type.v32int8.v32int8 %173, %struct.ipd.custom_type.v32int8.v32int8* %172, align 32, !dbg !1392
  %174 = load %"class.aie::detail::vector", %"class.aie::detail::vector"* %tmp67, align 32, !dbg !1392, !tbaa !1310
  store %"class.aie::detail::vector" %174, %"class.aie::detail::vector"* %data2, align 32, !dbg !1392, !tbaa !1310
  %175 = bitcast %"class.aie::detail::vector"* %tmp67 to i8*, !dbg !1392
  call addrspace(1) void @llvm.lifetime.end.p0i8(i64 32, i8* %175) #24, !dbg !1392
  %176 = bitcast %"class.aie::detail::vector"* %tmp69 to i8*, !dbg !1393
  call addrspace(1) void @llvm.lifetime.start.p0i8(i64 32, i8* %176) #24, !dbg !1393
  %call70 = call addrspace(1) %"class.aie::detail::vector" @_Z17window_readincr_vILj32EL15aie_dm_resource0EaEN3aie6detail6vectorIT1_XT_EEEP12input_windowIS4_E(%struct.input_window.1* %in) #26, !dbg !1393
  %177 = getelementptr inbounds %"class.aie::detail::vector", %"class.aie::detail::vector"* %tmp69, i32 0, i32 0, !dbg !1393
  %178 = extractvalue %"class.aie::detail::vector" %call70, 0, !dbg !1393
  store %struct.ipd.custom_type.v32int8.v32int8 %178, %struct.ipd.custom_type.v32int8.v32int8* %177, align 32, !dbg !1393
  %179 = load %"class.aie::detail::vector", %"class.aie::detail::vector"* %tmp69, align 32, !dbg !1393, !tbaa !1310
  store %"class.aie::detail::vector" %179, %"class.aie::detail::vector"* %data3, align 32, !dbg !1393, !tbaa !1310
  %180 = bitcast %"class.aie::detail::vector"* %tmp69 to i8*, !dbg !1393
  call addrspace(1) void @llvm.lifetime.end.p0i8(i64 32, i8* %180) #24, !dbg !1393
  %181 = bitcast %"class.aie::detail::accum"* %tmp71 to i8*, !dbg !1394
  call addrspace(1) void @llvm.lifetime.start.p0i8(i64 256, i8* %181) #24, !dbg !1394
  call addrspace(1) void @_ZN3aie3macINS_6detail5accumILNS1_10AccumClassE0ELj32ELj32EEENS1_6vectorIaLj32EEEaEENS_17operand_base_typeINS1_5utils10remove_allIT_E4typeEE4typeERKSA_RKT0_T1_(%"class.aie::detail::accum"* sret(%"class.aie::detail::accum") align 32 %tmp71, %"class.aie::detail::accum"* nonnull align 32 dereferenceable(256) %acc2, %"class.aie::detail::vector"* nonnull align 32 dereferenceable(32) %data2, i8 signext 6) #26, !dbg !1394
  %182 = load %"class.aie::detail::accum", %"class.aie::detail::accum"* %tmp71, align 32, !dbg !1394, !tbaa !1319
  store %"class.aie::detail::accum" %182, %"class.aie::detail::accum"* %acc2, align 32, !dbg !1394, !tbaa !1319
  %183 = bitcast %"class.aie::detail::accum"* %tmp71 to i8*, !dbg !1394
  call addrspace(1) void @llvm.lifetime.end.p0i8(i64 256, i8* %183) #24, !dbg !1394
  %184 = bitcast %"class.aie::detail::accum"* %tmp72 to i8*, !dbg !1395
  call addrspace(1) void @llvm.lifetime.start.p0i8(i64 256, i8* %184) #24, !dbg !1395
  call addrspace(1) void @_ZN3aie3macINS_6detail5accumILNS1_10AccumClassE0ELj32ELj32EEENS1_6vectorIaLj32EEEaEENS_17operand_base_typeINS1_5utils10remove_allIT_E4typeEE4typeERKSA_RKT0_T1_(%"class.aie::detail::accum"* sret(%"class.aie::detail::accum") align 32 %tmp72, %"class.aie::detail::accum"* nonnull align 32 dereferenceable(256) %acc2, %"class.aie::detail::vector"* nonnull align 32 dereferenceable(32) %data3, i8 signext 7) #26, !dbg !1395
  %185 = load %"class.aie::detail::accum", %"class.aie::detail::accum"* %tmp72, align 32, !dbg !1395, !tbaa !1319
  store %"class.aie::detail::accum" %185, %"class.aie::detail::accum"* %acc2, align 32, !dbg !1395, !tbaa !1319
  %186 = bitcast %"class.aie::detail::accum"* %tmp72 to i8*, !dbg !1395
  call addrspace(1) void @llvm.lifetime.end.p0i8(i64 256, i8* %186) #24, !dbg !1395
  %187 = bitcast %"class.aie::detail::accum"* %tmp73 to i8*, !dbg !1396
  call addrspace(1) void @llvm.lifetime.start.p0i8(i64 256, i8* %187) #24, !dbg !1396
  call addrspace(1) void @_ZN3aie3macINS_6detail5accumILNS1_10AccumClassE0ELj32ELj32EEENS1_6vectorIaLj32EEEaEENS_17operand_base_typeINS1_5utils10remove_allIT_E4typeEE4typeERKSA_RKT0_T1_(%"class.aie::detail::accum"* sret(%"class.aie::detail::accum") align 32 %tmp73, %"class.aie::detail::accum"* nonnull align 32 dereferenceable(256) %acc2, %"class.aie::detail::vector"* nonnull align 32 dereferenceable(32) %data1, i8 signext 8) #26, !dbg !1396
  %188 = load %"class.aie::detail::accum", %"class.aie::detail::accum"* %tmp73, align 32, !dbg !1396, !tbaa !1319
  store %"class.aie::detail::accum" %188, %"class.aie::detail::accum"* %acc2, align 32, !dbg !1396, !tbaa !1319
  %189 = bitcast %"class.aie::detail::accum"* %tmp73 to i8*, !dbg !1396
  call addrspace(1) void @llvm.lifetime.end.p0i8(i64 256, i8* %189) #24, !dbg !1396
  %190 = bitcast %"class.aie::detail::vector"* %ref.tmp74 to i8*, !dbg !1397
  call addrspace(1) void @llvm.lifetime.start.p0i8(i64 32, i8* %190) #24, !dbg !1397
  %call75 = call addrspace(1) %"class.aie::detail::vector" @_ZNK3aie6detail5accumILNS0_10AccumClassE0ELj32ELj32EE9to_vectorIaEENS0_6vectorIT_Lj32EEEi(%"class.aie::detail::accum"* nonnull dereferenceable(256) %acc1, i32 0) #26, !dbg !1398
  %191 = getelementptr inbounds %"class.aie::detail::vector", %"class.aie::detail::vector"* %ref.tmp74, i32 0, i32 0, !dbg !1398
  %192 = extractvalue %"class.aie::detail::vector" %call75, 0, !dbg !1398
  store %struct.ipd.custom_type.v32int8.v32int8 %192, %struct.ipd.custom_type.v32int8.v32int8* %191, align 32, !dbg !1398
  call addrspace(1) void @_Z16window_writeincrIL15aie_dm_resource0ELj32EaEvP13output_windowIT1_ERKN3aie6detail6vectorIS2_XT0_EEE(%struct.output_window.2* %out, %"class.aie::detail::vector"* nonnull align 32 dereferenceable(32) %ref.tmp74) #26, !dbg !1399
  %193 = bitcast %"class.aie::detail::vector"* %ref.tmp74 to i8*, !dbg !1399
  call addrspace(1) void @llvm.lifetime.end.p0i8(i64 32, i8* %193) #24, !dbg !1399
  %194 = bitcast %"class.aie::detail::vector"* %ref.tmp76 to i8*, !dbg !1400
  call addrspace(1) void @llvm.lifetime.start.p0i8(i64 32, i8* %194) #24, !dbg !1400
  %call77 = call addrspace(1) %"class.aie::detail::vector" @_ZNK3aie6detail5accumILNS0_10AccumClassE0ELj32ELj32EE9to_vectorIaEENS0_6vectorIT_Lj32EEEi(%"class.aie::detail::accum"* nonnull dereferenceable(256) %acc2, i32 0) #26, !dbg !1401
  %195 = getelementptr inbounds %"class.aie::detail::vector", %"class.aie::detail::vector"* %ref.tmp76, i32 0, i32 0, !dbg !1401
  %196 = extractvalue %"class.aie::detail::vector" %call77, 0, !dbg !1401
  store %struct.ipd.custom_type.v32int8.v32int8 %196, %struct.ipd.custom_type.v32int8.v32int8* %195, align 32, !dbg !1401
  call addrspace(1) void @_Z16window_writeincrIL15aie_dm_resource0ELj32EaEvP13output_windowIT1_ERKN3aie6detail6vectorIS2_XT0_EEE(%struct.output_window.2* %out, %"class.aie::detail::vector"* nonnull align 32 dereferenceable(32) %ref.tmp76) #26, !dbg !1402
  %197 = bitcast %"class.aie::detail::vector"* %ref.tmp76 to i8*, !dbg !1402
  call addrspace(1) void @llvm.lifetime.end.p0i8(i64 32, i8* %197) #24, !dbg !1402
  %198 = bitcast %"class.aie::detail::accum"* %acc3 to i8*, !dbg !1403
  call addrspace(1) void @llvm.lifetime.end.p0i8(i64 256, i8* %198) #24, !dbg !1403
  %199 = bitcast %"class.aie::detail::accum"* %acc2 to i8*, !dbg !1403
  call addrspace(1) void @llvm.lifetime.end.p0i8(i64 256, i8* %199) #24, !dbg !1403
  %200 = bitcast %"class.aie::detail::accum"* %acc1 to i8*, !dbg !1403
  call addrspace(1) void @llvm.lifetime.end.p0i8(i64 256, i8* %200) #24, !dbg !1403
  %201 = bitcast %"class.aie::detail::vector"* %data3 to i8*, !dbg !1403
  call addrspace(1) void @llvm.lifetime.end.p0i8(i64 32, i8* %201) #24, !dbg !1403
  %202 = bitcast %"class.aie::detail::vector"* %data2 to i8*, !dbg !1403
  call addrspace(1) void @llvm.lifetime.end.p0i8(i64 32, i8* %202) #24, !dbg !1403
  %203 = bitcast %"class.aie::detail::vector"* %data1 to i8*, !dbg !1403
  call addrspace(1) void @llvm.lifetime.end.p0i8(i64 32, i8* %203) #24, !dbg !1403
  ret void, !dbg !1403
}

; Function Attrs: alwaysinline nounwind
define linkonce_odr dso_local void @_ZN3aie6detail6vectorIaLj32EEC2Ev(%"class.aie::detail::vector"* nonnull dereferenceable(32) %this) unnamed_addr addrspace(1) #10 comdat align 2 !dbg !1404 {
entry:
  call addrspace(1) void @llvm.dbg.value(metadata %"class.aie::detail::vector"* %this, metadata !1406, metadata !DIExpression()), !dbg !1408
  %data = getelementptr inbounds %"class.aie::detail::vector", %"class.aie::detail::vector"* %this, i32 0, i32 0, !dbg !1409
  %call = call addrspace(1) %struct.ipd.custom_type.v32int8.v32int8 @_ZN3aie6detail14vector_storageIaLj32EE5undefEv() #26, !dbg !1410
  store %struct.ipd.custom_type.v32int8.v32int8 %call, %struct.ipd.custom_type.v32int8.v32int8* %data, align 32, !dbg !1410
  ret void, !dbg !1411
}

; Function Attrs: alwaysinline nounwind
define linkonce_odr dso_local void @_ZN3aie6detail5accumILNS0_10AccumClassE0ELj32ELj32EEC2Ev(%"class.aie::detail::accum"* nonnull dereferenceable(256) %this) unnamed_addr addrspace(1) #10 comdat align 2 !dbg !1412 {
entry:
  call addrspace(1) void @llvm.dbg.value(metadata %"class.aie::detail::accum"* %this, metadata !1414, metadata !DIExpression()), !dbg !1416
  %data = getelementptr inbounds %"class.aie::detail::accum", %"class.aie::detail::accum"* %this, i32 0, i32 0, !dbg !1417
  call addrspace(1) void @_ZN3aie6detail13accum_storageILNS0_10AccumClassE0ELj48ELj32EE5undefEv(%"struct.std::__2::array"* sret(%"struct.std::__2::array") align 32 %data) #26, !dbg !1418
  ret void, !dbg !1419
}

; Function Attrs: alwaysinline nounwind mustprogress
define linkonce_odr dso_local %"class.aie::detail::vector" @_ZN3aie5zerosIaLj32EEENS_6detail6vectorIT_XT0_EEEv() addrspace(1) #8 comdat !dbg !1420 {
entry:
  %retval = alloca %"class.aie::detail::vector", align 32
  %call = call addrspace(1) %"class.aie::detail::vector" @_ZN3aie6detail5zerosIaLj32EEENS0_6vectorIT_XT0_EEEv() #26, !dbg !1424
  %0 = getelementptr inbounds %"class.aie::detail::vector", %"class.aie::detail::vector"* %retval, i32 0, i32 0, !dbg !1424
  %1 = extractvalue %"class.aie::detail::vector" %call, 0, !dbg !1424
  store %struct.ipd.custom_type.v32int8.v32int8 %1, %struct.ipd.custom_type.v32int8.v32int8* %0, align 32, !dbg !1424
  %2 = load %"class.aie::detail::vector", %"class.aie::detail::vector"* %retval, align 32, !dbg !1425
  ret %"class.aie::detail::vector" %2, !dbg !1425
}

; Function Attrs: alwaysinline nounwind mustprogress
define linkonce_odr dso_local nonnull align 32 dereferenceable(256) %"class.aie::detail::accum"* @_ZN3aie6detail5accumILNS0_10AccumClassE0ELj32ELj32EEaSIaEERS3_RKNS0_6vectorIT_Lj32EEE(%"class.aie::detail::accum"* nonnull dereferenceable(256) %this, %"class.aie::detail::vector"* nonnull align 32 dereferenceable(32) %v) addrspace(1) #8 comdat align 2 !dbg !1426 {
entry:
  call addrspace(1) void @llvm.dbg.value(metadata %"class.aie::detail::accum"* %this, metadata !1433, metadata !DIExpression()), !dbg !1435
  call addrspace(1) void @llvm.dbg.value(metadata %"class.aie::detail::vector"* %v, metadata !1434, metadata !DIExpression()), !dbg !1435
  call addrspace(1) void @_ZN3aie6detail5accumILNS0_10AccumClassE0ELj32ELj32EE11from_vectorIaEEvRKNS0_6vectorIT_Lj32EEEi(%"class.aie::detail::accum"* nonnull dereferenceable(256) %this, %"class.aie::detail::vector"* nonnull align 32 dereferenceable(32) %v, i32 0) #26, !dbg !1436
  ret %"class.aie::detail::accum"* %this, !dbg !1437
}

; Function Attrs: nounwind mustprogress
define linkonce_odr dso_local %"class.aie::detail::vector" @_Z17window_readincr_vILj32EL15aie_dm_resource0EaEN3aie6detail6vectorIT1_XT_EEEP12input_windowIS4_E(%struct.input_window.1* %w) addrspace(1) #16 comdat !dbg !1438 {
entry:
  %retval = alloca %"class.aie::detail::vector", align 32
  call addrspace(1) void @llvm.dbg.value(metadata %struct.input_window.1* %w, metadata !1444, metadata !DIExpression()), !dbg !1446
  %call = call addrspace(1) %"class.aie::detail::vector" @_ZN3aie6detail3adf13window_helperIaLj32EL15aie_dm_resource0EE15window_readincrEP12input_windowIaE(%struct.input_window.1* %w) #26, !dbg !1447
  %0 = getelementptr inbounds %"class.aie::detail::vector", %"class.aie::detail::vector"* %retval, i32 0, i32 0, !dbg !1447
  %1 = extractvalue %"class.aie::detail::vector" %call, 0, !dbg !1447
  store %struct.ipd.custom_type.v32int8.v32int8 %1, %struct.ipd.custom_type.v32int8.v32int8* %0, align 32, !dbg !1447
  %2 = load %"class.aie::detail::vector", %"class.aie::detail::vector"* %retval, align 32, !dbg !1448
  ret %"class.aie::detail::vector" %2, !dbg !1448
}

; Function Attrs: alwaysinline nounwind mustprogress
define linkonce_odr dso_local void @_ZN3aie3macINS_6detail5accumILNS1_10AccumClassE0ELj32ELj32EEENS1_6vectorIaLj32EEEaEENS_17operand_base_typeINS1_5utils10remove_allIT_E4typeEE4typeERKSA_RKT0_T1_(%"class.aie::detail::accum"* noalias sret(%"class.aie::detail::accum") align 32 %agg.result, %"class.aie::detail::accum"* nonnull align 32 dereferenceable(256) %acc, %"class.aie::detail::vector"* nonnull align 32 dereferenceable(32) %v, i8 signext %a) addrspace(1) #8 comdat !dbg !1449 {
entry:
  %ref.tmp = alloca %"struct.aie::unary_op", align 32
  call addrspace(1) void @llvm.dbg.value(metadata %"class.aie::detail::accum"* %acc, metadata !1462, metadata !DIExpression()), !dbg !1469
  call addrspace(1) void @llvm.dbg.value(metadata %"class.aie::detail::vector"* %v, metadata !1463, metadata !DIExpression()), !dbg !1469
  call addrspace(1) void @llvm.dbg.value(metadata i8 %a, metadata !1464, metadata !DIExpression()), !dbg !1469
  %0 = bitcast %"struct.aie::unary_op"* %ref.tmp to i8*, !dbg !1470
  call addrspace(1) void @llvm.lifetime.start.p0i8(i64 256, i8* %0) #24, !dbg !1470
  call addrspace(1) void @_ZN3aie6op_addINS_6detail5accumILNS1_10AccumClassE0ELj32ELj32EEEEENS_8unary_opIT_LNS_9OperationE1EEERKS6_(%"struct.aie::unary_op"* sret(%"struct.aie::unary_op") align 32 %ref.tmp, %"class.aie::detail::accum"* nonnull align 32 dereferenceable(256) %acc) #26, !dbg !1470
  call addrspace(1) void @_ZN3aie3macINS_8unary_opINS_6detail5accumILNS2_10AccumClassE0ELj32ELj32EEELNS_9OperationE1EEENS2_6vectorIaLj32EEEaEENS_17operand_base_typeINS2_5utils10remove_allIT_E4typeEE4typeERKSD_RKT0_T1_(%"class.aie::detail::accum"* sret(%"class.aie::detail::accum") align 32 %agg.result, %"struct.aie::unary_op"* nonnull align 32 dereferenceable(256) %ref.tmp, %"class.aie::detail::vector"* nonnull align 32 dereferenceable(32) %v, i8 signext %a) #26, !dbg !1473
  %1 = bitcast %"struct.aie::unary_op"* %ref.tmp to i8*, !dbg !1474
  call addrspace(1) void @llvm.lifetime.end.p0i8(i64 256, i8* %1) #24, !dbg !1474
  ret void, !dbg !1474
}

; Function Attrs: alwaysinline nounwind mustprogress
define linkonce_odr dso_local %"class.aie::detail::vector" @_ZNK3aie6detail5accumILNS0_10AccumClassE0ELj32ELj32EE9to_vectorIaEENS0_6vectorIT_Lj32EEEi(%"class.aie::detail::accum"* nonnull dereferenceable(256) %this, i32 %shift) addrspace(1) #8 comdat align 2 !dbg !1475 {
entry:
  %retval = alloca %"class.aie::detail::vector", align 32
  %custom_type.tmp = alloca %"class.aie::detail::vector", align 32
  %fn = alloca %class.anon, align 1
  %tmp1 = alloca %"class.aie::detail::vector.12", align 16
  %custom_type.tmp2 = alloca %"class.aie::detail::vector.12", align 16
  %ref.tmp = alloca %"class.aie::detail::accum.8", align 32
  %tmp2 = alloca %"class.aie::detail::vector.12", align 16
  %custom_type.tmp5 = alloca %"class.aie::detail::vector.12", align 16
  %ref.tmp7 = alloca %"class.aie::detail::accum.8", align 32
  call addrspace(1) void @llvm.dbg.value(metadata %"class.aie::detail::accum"* %this, metadata !1480, metadata !DIExpression()), !dbg !1658
  call addrspace(1) void @llvm.dbg.value(metadata i32 0, metadata !1482, metadata !DIExpression()), !dbg !1658
  call addrspace(1) void @llvm.dbg.declare(metadata %"class.aie::detail::vector"* %retval, metadata !1483, metadata !DIExpression()), !dbg !1659
  call addrspace(1) void @_ZN3aie6detail6vectorIaLj32EEC2Ev(%"class.aie::detail::vector"* nonnull dereferenceable(32) %custom_type.tmp) #26, !dbg !1659
  %0 = load %"class.aie::detail::vector", %"class.aie::detail::vector"* %custom_type.tmp, align 32, !dbg !1659, !tbaa !1310
  store %"class.aie::detail::vector" %0, %"class.aie::detail::vector"* %retval, align 32, !dbg !1659, !tbaa !1310
  store %class.anon undef, %class.anon* %fn, align 1, !dbg !1660
  %1 = bitcast %class.anon* %fn to i8*, !dbg !1660
  call addrspace(1) void @llvm.lifetime.start.p0i8(i64 1, i8* %1) #24, !dbg !1660
  call addrspace(1) void @llvm.dbg.declare(metadata %class.anon* %fn, metadata !1484, metadata !DIExpression()), !dbg !1661
  %2 = bitcast %class.anon* %fn to i8*, !dbg !1661
  call addrspace(1) void @llvm.memcpy.p0i8.p0i8.i32(i8* align 1 %2, i8* align 1 getelementptr inbounds (%class.anon, %class.anon* @__const._ZNK3aie6detail5accumILNS0_10AccumClassE0ELj32ELj32EE9to_vectorIaEENS0_6vectorIT_Lj32EEEi.fn, i32 0, i32 0), i32 1, i1 false), !dbg !1661
  store %"class.aie::detail::vector.12" undef, %"class.aie::detail::vector.12"* %tmp1, align 16, !dbg !1662
  %3 = bitcast %"class.aie::detail::vector.12"* %tmp1 to i8*, !dbg !1662
  call addrspace(1) void @llvm.lifetime.start.p0i8(i64 16, i8* %3) #24, !dbg !1662
  call addrspace(1) void @llvm.dbg.declare(metadata %"class.aie::detail::vector.12"* %tmp1, metadata !1490, metadata !DIExpression()), !dbg !1663
  %4 = bitcast %"class.aie::detail::accum.8"* %ref.tmp to i8*, !dbg !1664
  call addrspace(1) void @llvm.lifetime.start.p0i8(i64 128, i8* %4) #24, !dbg !1664
  %call = call addrspace(1) %"class.aie::detail::accum.8" @_ZNK3aie6detail5accumILNS0_10AccumClassE0ELj32ELj32EE7extractILj16EEENS1_ILS2_0ELj48EXT_EEEj(%"class.aie::detail::accum"* nonnull dereferenceable(256) %this, i32 0) #26, !dbg !1664
  %5 = getelementptr inbounds %"class.aie::detail::accum.8", %"class.aie::detail::accum.8"* %ref.tmp, i32 0, i32 0, !dbg !1664
  %6 = extractvalue %"class.aie::detail::accum.8" %call, 0, !dbg !1664
  store %struct.ipd.custom_type.v16acc48.v16acc48 %6, %struct.ipd.custom_type.v16acc48.v16acc48* %5, align 32, !dbg !1664
  %call3 = call addrspace(1) %struct.ipd.custom_type.v16int8.v16int8 @_ZZN3aie6detail5accumILNS0_10AccumClassE0ELj32ELj32EE7get_srsIaEEDavENKUlRKT_iE_clINS1_ILS2_0ELj48ELj16EEEEEDaS7_i(%class.anon* nonnull dereferenceable(1) %fn, %"class.aie::detail::accum.8"* nonnull align 32 dereferenceable(128) %ref.tmp, i32 0) #26, !dbg !1665
  call addrspace(1) void @_ZN3aie6detail6vectorIaLj16EEC2E7v16int8(%"class.aie::detail::vector.12"* nonnull dereferenceable(16) %custom_type.tmp2, %struct.ipd.custom_type.v16int8.v16int8 %call3) #26, !dbg !1665
  %7 = load %"class.aie::detail::vector.12", %"class.aie::detail::vector.12"* %custom_type.tmp2, align 16, !dbg !1665, !tbaa !1666
  store %"class.aie::detail::vector.12" %7, %"class.aie::detail::vector.12"* %tmp1, align 16, !dbg !1665, !tbaa !1666
  %8 = bitcast %"class.aie::detail::accum.8"* %ref.tmp to i8*, !dbg !1665
  call addrspace(1) void @llvm.lifetime.end.p0i8(i64 128, i8* %8) #24, !dbg !1665
  %call4 = call nonnull align 32 dereferenceable(32) addrspace(1) %"class.aie::detail::vector"* @_ZN3aie6detail6vectorIaLj32EE6insertILj16EEERS2_jRKNS1_IaXT_EEE(%"class.aie::detail::vector"* nonnull dereferenceable(32) %retval, i32 0, %"class.aie::detail::vector.12"* nonnull align 16 dereferenceable(16) %tmp1) #26, !dbg !1669
  store %"class.aie::detail::vector.12" undef, %"class.aie::detail::vector.12"* %tmp2, align 16, !dbg !1670
  %9 = bitcast %"class.aie::detail::vector.12"* %tmp2 to i8*, !dbg !1670
  call addrspace(1) void @llvm.lifetime.start.p0i8(i64 16, i8* %9) #24, !dbg !1670
  call addrspace(1) void @llvm.dbg.declare(metadata %"class.aie::detail::vector.12"* %tmp2, metadata !1657, metadata !DIExpression()), !dbg !1671
  %10 = bitcast %"class.aie::detail::accum.8"* %ref.tmp7 to i8*, !dbg !1672
  call addrspace(1) void @llvm.lifetime.start.p0i8(i64 128, i8* %10) #24, !dbg !1672
  %call8 = call addrspace(1) %"class.aie::detail::accum.8" @_ZNK3aie6detail5accumILNS0_10AccumClassE0ELj32ELj32EE7extractILj16EEENS1_ILS2_0ELj48EXT_EEEj(%"class.aie::detail::accum"* nonnull dereferenceable(256) %this, i32 1) #26, !dbg !1672
  %11 = getelementptr inbounds %"class.aie::detail::accum.8", %"class.aie::detail::accum.8"* %ref.tmp7, i32 0, i32 0, !dbg !1672
  %12 = extractvalue %"class.aie::detail::accum.8" %call8, 0, !dbg !1672
  store %struct.ipd.custom_type.v16acc48.v16acc48 %12, %struct.ipd.custom_type.v16acc48.v16acc48* %11, align 32, !dbg !1672
  %call9 = call addrspace(1) %struct.ipd.custom_type.v16int8.v16int8 @_ZZN3aie6detail5accumILNS0_10AccumClassE0ELj32ELj32EE7get_srsIaEEDavENKUlRKT_iE_clINS1_ILS2_0ELj48ELj16EEEEEDaS7_i(%class.anon* nonnull dereferenceable(1) %fn, %"class.aie::detail::accum.8"* nonnull align 32 dereferenceable(128) %ref.tmp7, i32 0) #26, !dbg !1673
  call addrspace(1) void @_ZN3aie6detail6vectorIaLj16EEC2E7v16int8(%"class.aie::detail::vector.12"* nonnull dereferenceable(16) %custom_type.tmp5, %struct.ipd.custom_type.v16int8.v16int8 %call9) #26, !dbg !1673
  %13 = load %"class.aie::detail::vector.12", %"class.aie::detail::vector.12"* %custom_type.tmp5, align 16, !dbg !1673, !tbaa !1666
  store %"class.aie::detail::vector.12" %13, %"class.aie::detail::vector.12"* %tmp2, align 16, !dbg !1673, !tbaa !1666
  %14 = bitcast %"class.aie::detail::accum.8"* %ref.tmp7 to i8*, !dbg !1673
  call addrspace(1) void @llvm.lifetime.end.p0i8(i64 128, i8* %14) #24, !dbg !1673
  %call10 = call nonnull align 32 dereferenceable(32) addrspace(1) %"class.aie::detail::vector"* @_ZN3aie6detail6vectorIaLj32EE6insertILj16EEERS2_jRKNS1_IaXT_EEE(%"class.aie::detail::vector"* nonnull dereferenceable(32) %retval, i32 1, %"class.aie::detail::vector.12"* nonnull align 16 dereferenceable(16) %tmp2) #26, !dbg !1674
  %15 = bitcast %"class.aie::detail::vector.12"* %tmp2 to i8*, !dbg !1675
  call addrspace(1) void @llvm.lifetime.end.p0i8(i64 16, i8* %15) #24, !dbg !1675
  %16 = bitcast %"class.aie::detail::vector.12"* %tmp1 to i8*, !dbg !1675
  call addrspace(1) void @llvm.lifetime.end.p0i8(i64 16, i8* %16) #24, !dbg !1675
  %17 = bitcast %class.anon* %fn to i8*, !dbg !1676
  call addrspace(1) void @llvm.lifetime.end.p0i8(i64 1, i8* %17) #24, !dbg !1676
  %18 = load %"class.aie::detail::vector", %"class.aie::detail::vector"* %retval, align 32, !dbg !1677
  ret %"class.aie::detail::vector" %18, !dbg !1677
}

; Function Attrs: nounwind mustprogress
define linkonce_odr dso_local void @_Z16window_writeincrIL15aie_dm_resource0ELj32EaEvP13output_windowIT1_ERKN3aie6detail6vectorIS2_XT0_EEE(%struct.output_window.2* %w, %"class.aie::detail::vector"* nonnull align 32 dereferenceable(32) %value) addrspace(1) #16 comdat !dbg !1678 {
entry:
  call addrspace(1) void @llvm.dbg.value(metadata %struct.output_window.2* %w, metadata !1685, metadata !DIExpression()), !dbg !1688
  call addrspace(1) void @llvm.dbg.value(metadata %"class.aie::detail::vector"* %value, metadata !1686, metadata !DIExpression()), !dbg !1688
  %0 = load %"class.aie::detail::vector", %"class.aie::detail::vector"* %value, align 32, !dbg !1689, !tbaa !1310
  call addrspace(1) void @_ZN3aie6detail3adf13window_helperIaLj32EL15aie_dm_resource0EE16window_writeincrEP13output_windowIaENS0_6vectorIaLj32EEE(%struct.output_window.2* %w, %"class.aie::detail::vector" %0) #26, !dbg !1689
  ret void, !dbg !1690
}

; Function Attrs: nounwind mustprogress
define linkonce_odr dso_local void @_ZN3aie6detail3adf13window_helperIaLj32EL15aie_dm_resource0EE16window_writeincrEP13output_windowIaENS0_6vectorIaLj32EEE(%struct.output_window.2* %w, %"class.aie::detail::vector" %value.coerce) addrspace(1) #16 comdat align 2 !dbg !1691 {
entry:
  %value = alloca %"class.aie::detail::vector", align 32
  store %"class.aie::detail::vector" %value.coerce, %"class.aie::detail::vector"* %value, align 32
  call addrspace(1) void @llvm.dbg.value(metadata %struct.output_window.2* %w, metadata !1713, metadata !DIExpression()), !dbg !1715
  call addrspace(1) void @llvm.dbg.declare(metadata %"class.aie::detail::vector"* %value, metadata !1714, metadata !DIExpression()), !dbg !1716
  %call = call addrspace(1) %struct.ipd.custom_type.v32int8.v32int8 @_ZNK3aie6detail6vectorIaLj32EEcv7v32int8Ev(%"class.aie::detail::vector"* nonnull dereferenceable(32) %value) #26, !dbg !1717
  call addrspace(1) void @_ZL16window_writeincrIL15aie_dm_resource0EEvP13output_windowIaE7v32int8(%struct.output_window.2* %w, %struct.ipd.custom_type.v32int8.v32int8 %call) #26, !dbg !1718
  ret void, !dbg !1719
}

; Function Attrs: alwaysinline nounwind mustprogress
define linkonce_odr dso_local %struct.ipd.custom_type.v32int8.v32int8 @_ZNK3aie6detail6vectorIaLj32EEcv7v32int8Ev(%"class.aie::detail::vector"* nonnull dereferenceable(32) %this) addrspace(1) #8 comdat align 2 !dbg !1720 {
entry:
  call addrspace(1) void @llvm.dbg.value(metadata %"class.aie::detail::vector"* %this, metadata !1722, metadata !DIExpression()), !dbg !1724
  %call = call addrspace(1) %struct.ipd.custom_type.v32int8.v32int8 @_ZNK3aie6detail6vectorIaLj32EE9to_nativeEv(%"class.aie::detail::vector"* nonnull dereferenceable(32) %this) #26, !dbg !1725
  ret %struct.ipd.custom_type.v32int8.v32int8 %call, !dbg !1725
}

; Function Attrs: inlinehint nounwind mustprogress
define internal void @_ZL16window_writeincrIL15aie_dm_resource0EEvP13output_windowIaE7v32int8(%struct.output_window.2* %w, %struct.ipd.custom_type.v32int8.v32int8 %value.coerce) addrspace(1) #4 !dbg !315 !noalias !1726 {
entry:
  call addrspace(1) void @llvm.dbg.value(metadata %struct.ipd.custom_type.v32int8.v32int8 %value.coerce, metadata !320, metadata !DIExpression()), !dbg !1729
  call addrspace(1) void @llvm.dbg.value(metadata %struct.output_window.2* %w, metadata !319, metadata !DIExpression()), !dbg !1729
  %ptr = getelementptr inbounds %struct.output_window.2, %struct.output_window.2* %w, i32 0, i32 2, !dbg !1730
  %0 = load i8*, i8** %ptr, align 4, !dbg !1730, !tbaa !759, !noalias !1726
  %1 = call addrspace(1) i8* @llvm.noalias.p0i8.p0i8.p0p0i8.i32(i8* %0, i8* null, i8** %ptr, i32 0, metadata !1726), !dbg !1730, !tbaa !759, !noalias !1726
  %2 = bitcast i8* %1 to %struct.ipd.custom_type.v32int8.v32int8*, !dbg !1730
  store %struct.ipd.custom_type.v32int8.v32int8 %value.coerce, %struct.ipd.custom_type.v32int8.v32int8* %2, align 32, !dbg !1730, !tbaa !1731, !noalias !1726
  call addrspace(1) void @_ZL15window_incr_v32P13output_windowIaEi(%struct.output_window.2* %w, i32 1) #26, !dbg !1730, !noalias !1726
  ret void, !dbg !1730
}

; Function Attrs: inlinehint nounwind mustprogress
define internal void @_ZL15window_incr_v32P13output_windowIaEi(%struct.output_window.2* %w, i32 %count) addrspace(1) #4 !dbg !1732 !noalias !1738 {
entry:
  call addrspace(1) void @llvm.dbg.value(metadata %struct.output_window.2* %w, metadata !1736, metadata !DIExpression()), !dbg !1741
  call addrspace(1) void @llvm.dbg.value(metadata i32 1, metadata !1737, metadata !DIExpression()), !dbg !1741
  %mul = mul i32 1, 32, !dbg !1742
  call addrspace(1) void @llvm.dbg.value(metadata i32 %mul, metadata !1737, metadata !DIExpression()), !dbg !1741
  %ptr = getelementptr inbounds %struct.output_window.2, %struct.output_window.2* %w, i32 0, i32 2, !dbg !1742
  %0 = load i8*, i8** %ptr, align 4, !dbg !1742, !tbaa !759, !noalias !1738
  %1 = call addrspace(1) i8* @llvm.noalias.p0i8.p0i8.p0p0i8.i32(i8* %0, i8* null, i8** %ptr, i32 0, metadata !1738), !dbg !1742, !tbaa !759, !noalias !1738
  %buffer = getelementptr inbounds %struct.output_window.2, %struct.output_window.2* %w, i32 0, i32 5, !dbg !1742
  %2 = load i8*, i8** %buffer, align 4, !dbg !1742, !tbaa !1743, !noalias !1738
  %3 = call addrspace(1) i8* @llvm.noalias.p0i8.p0i8.p0p0i8.i32(i8* %2, i8* null, i8** %buffer, i32 0, metadata !1738), !dbg !1742, !tbaa !1743, !noalias !1738
  %size = getelementptr inbounds %struct.output_window.2, %struct.output_window.2* %w, i32 0, i32 7, !dbg !1742
  %4 = load i32, i32* %size, align 4, !dbg !1742, !tbaa !1744, !noalias !1738
  %call = call addrspace(1) i8* @_Z10cyclic_addIaEPT_S1_iS1_i(i8* %1, i32 %mul, i8* %3, i32 %4) #26, !dbg !1742, !noalias !1738
  %ptr1 = getelementptr inbounds %struct.output_window.2, %struct.output_window.2* %w, i32 0, i32 2, !dbg !1742
  store i8* %call, i8** %ptr1, align 4, !dbg !1742, !tbaa !759, !noalias !1738
  ret void, !dbg !1742
}

; Function Attrs: alwaysinline nounwind mustprogress
define linkonce_odr dso_local i8* @_Z10cyclic_addIaEPT_S1_iS1_i(i8* %a0, i32 %a1, i8* chesscopy noalias %a2, i32 %a3) addrspace(1) #8 comdat {
entry:
  %a2.addr = alloca i8*, align 4
  %0 = call addrspace(1) i8* @llvm.noalias.decl.p0i8.p0p0i8.i32(i8** %a2.addr, i32 0, metadata !1745), !noalias !1745
  store i8* %a2, i8** %a2.addr, align 4, !tbaa !839, !noalias !1745
  %mul = mul i32 %a1, 1
  %1 = load i8*, i8** %a2.addr, align 4, !tbaa !839, !noalias !1745
  %2 = call addrspace(1) i8* @llvm.noalias.p0i8.p0i8.p0p0i8.i32(i8* %1, i8* %0, i8** %a2.addr, i32 0, metadata !1745), !tbaa !839, !noalias !1745
  %mul1 = mul i32 %a3, 1
  %call = call x86_regcallcc addrspace(1) i8* @__regcall3__chessintr___Pvoid_cyclic_add___Pvoid___sint___Pvoid___sint(i8* %a0, i32 signext %mul, i8* %2, i32 signext %mul1) #30
  ret i8* %call
}

; Function Attrs: nounwind positionalaliasingreturns readnone willreturn
declare dso_local x86_regcallcc i8* @__regcall3__chessintr___Pvoid_cyclic_add___Pvoid___sint___Pvoid___sint(i8*, i32 signext, i8*, i32 signext) addrspace(1) #17

; Function Attrs: alwaysinline nounwind mustprogress
define linkonce_odr dso_local %struct.ipd.custom_type.v32int8.v32int8 @_ZNK3aie6detail6vectorIaLj32EE9to_nativeEv(%"class.aie::detail::vector"* nonnull dereferenceable(32) %this) addrspace(1) #8 comdat align 2 !dbg !1748 {
entry:
  call addrspace(1) void @llvm.dbg.value(metadata %"class.aie::detail::vector"* %this, metadata !1756, metadata !DIExpression()), !dbg !1757
  %data = getelementptr inbounds %"class.aie::detail::vector", %"class.aie::detail::vector"* %this, i32 0, i32 0, !dbg !1758
  %0 = load %struct.ipd.custom_type.v32int8.v32int8, %struct.ipd.custom_type.v32int8.v32int8* %data, align 32, !dbg !1758, !tbaa !1731
  ret %struct.ipd.custom_type.v32int8.v32int8 %0, !dbg !1758
}

; Function Attrs: argmemonly nofree nosync nounwind willreturn
declare void @llvm.memcpy.p0i8.p0i8.i32(i8* noalias nocapture writeonly, i8* noalias nocapture readonly, i32, i1 immarg) addrspace(1) #1

; Function Attrs: alwaysinline nounwind mustprogress
define linkonce_odr dso_local %"class.aie::detail::accum.8" @_ZNK3aie6detail5accumILNS0_10AccumClassE0ELj32ELj32EE7extractILj16EEENS1_ILS2_0ELj48EXT_EEEj(%"class.aie::detail::accum"* nonnull dereferenceable(256) %this, i32 %idx) addrspace(1) #8 comdat align 2 !dbg !1760 {
entry:
  %retval = alloca %"class.aie::detail::accum.8", align 32
  %custom_type.tmp = alloca %"class.aie::detail::accum.8", align 32
  call addrspace(1) void @llvm.dbg.value(metadata %"class.aie::detail::accum"* %this, metadata !2089, metadata !DIExpression()), !dbg !2100
  call addrspace(1) void @llvm.dbg.value(metadata i32 %idx, metadata !2090, metadata !DIExpression()), !dbg !2100
  call addrspace(1) void @llvm.dbg.value(metadata i32 undef, metadata !2091, metadata !DIExpression()), !dbg !2100
  call addrspace(1) void @llvm.dbg.value(metadata i32 2, metadata !2091, metadata !DIExpression()), !dbg !2100
  call addrspace(1) void @llvm.dbg.value(metadata i32 undef, metadata !2092, metadata !DIExpression()), !dbg !2100
  call addrspace(1) void @llvm.dbg.value(metadata i32 1, metadata !2092, metadata !DIExpression()), !dbg !2100
  call addrspace(1) void @llvm.dbg.value(metadata i32 undef, metadata !2093, metadata !DIExpression()), !dbg !2101
  call addrspace(1) void @llvm.dbg.value(metadata i32 16, metadata !2093, metadata !DIExpression()), !dbg !2101
  call addrspace(1) void @llvm.dbg.value(metadata i32 undef, metadata !2098, metadata !DIExpression()), !dbg !2101
  call addrspace(1) void @llvm.dbg.value(metadata i32 16, metadata !2098, metadata !DIExpression()), !dbg !2101
  call addrspace(1) void @llvm.dbg.declare(metadata %"class.aie::detail::accum.8"* %retval, metadata !2099, metadata !DIExpression()), !dbg !2102
  call addrspace(1) void @_ZN3aie6detail5accumILNS0_10AccumClassE0ELj48ELj16EEC2Ev(%"class.aie::detail::accum.8"* nonnull dereferenceable(128) %custom_type.tmp) #26, !dbg !2102
  %0 = load %"class.aie::detail::accum.8", %"class.aie::detail::accum.8"* %custom_type.tmp, align 32, !dbg !2102, !tbaa !2103
  store %"class.aie::detail::accum.8" %0, %"class.aie::detail::accum.8"* %retval, align 32, !dbg !2102, !tbaa !2103
  %data = getelementptr inbounds %"class.aie::detail::accum.8", %"class.aie::detail::accum.8"* %retval, i32 0, i32 0, !dbg !2105
  %data2 = getelementptr inbounds %"class.aie::detail::accum", %"class.aie::detail::accum"* %this, i32 0, i32 0, !dbg !2110
  %call = call nonnull align 32 dereferenceable(96) addrspace(1) %struct.ipd.custom_type.v16acc48.v16acc48* @_ZNKSt3__25arrayI8v16acc48Lj2EEixEj(%"struct.std::__2::array"* nonnull dereferenceable(256) %data2, i32 %idx) #31, !dbg !2110
  %1 = load %struct.ipd.custom_type.v16acc48.v16acc48, %struct.ipd.custom_type.v16acc48.v16acc48* %call, align 32, !dbg !2110, !tbaa !2111
  store %struct.ipd.custom_type.v16acc48.v16acc48 %1, %struct.ipd.custom_type.v16acc48.v16acc48* %data, align 32, !dbg !2110, !tbaa !2111
  %2 = load %"class.aie::detail::accum.8", %"class.aie::detail::accum.8"* %retval, align 32, !dbg !2112
  ret %"class.aie::detail::accum.8" %2, !dbg !2112
}

; Function Attrs: inlinehint nounwind mustprogress
define linkonce_odr dso_local %struct.ipd.custom_type.v16int8.v16int8 @_ZZN3aie6detail5accumILNS0_10AccumClassE0ELj32ELj32EE7get_srsIaEEDavENKUlRKT_iE_clINS1_ILS2_0ELj48ELj16EEEEEDaS7_i(%class.anon* nonnull dereferenceable(1) %this, %"class.aie::detail::accum.8"* nonnull align 32 dereferenceable(128) %acc, i32 %shift) addrspace(1) #4 comdat align 2 !dbg !2113 {
entry:
  call addrspace(1) void @llvm.dbg.value(metadata %class.anon* %this, metadata !2124, metadata !DIExpression()), !dbg !2128
  call addrspace(1) void @llvm.dbg.value(metadata %"class.aie::detail::accum.8"* %acc, metadata !2126, metadata !DIExpression()), !dbg !2128
  call addrspace(1) void @llvm.dbg.value(metadata i32 0, metadata !2127, metadata !DIExpression()), !dbg !2128
  %call = call addrspace(1) %struct.ipd.custom_type.v16acc48.v16acc48 @_ZNK3aie6detail5accumILNS0_10AccumClassE0ELj48ELj16EEcv8v16acc48Ev(%"class.aie::detail::accum.8"* nonnull dereferenceable(128) %acc) #26, !dbg !2129
  %call2 = call addrspace(1) %struct.ipd.custom_type.v16int8.v16int8 @_Z4bsrs8v16acc48i(%struct.ipd.custom_type.v16acc48.v16acc48 %call, i32 0) #32, !dbg !2130
  ret %struct.ipd.custom_type.v16int8.v16int8 %call2, !dbg !2130
}

; Function Attrs: alwaysinline nounwind
define linkonce_odr dso_local void @_ZN3aie6detail6vectorIaLj16EEC2E7v16int8(%"class.aie::detail::vector.12"* nonnull dereferenceable(16) %this, %struct.ipd.custom_type.v16int8.v16int8 %v.coerce) unnamed_addr addrspace(1) #10 comdat align 2 !dbg !2131 {
entry:
  call addrspace(1) void @llvm.dbg.value(metadata %struct.ipd.custom_type.v16int8.v16int8 %v.coerce, metadata !2135, metadata !DIExpression()), !dbg !2136
  call addrspace(1) void @llvm.dbg.value(metadata %"class.aie::detail::vector.12"* %this, metadata !2133, metadata !DIExpression()), !dbg !2136
  %data = getelementptr inbounds %"class.aie::detail::vector.12", %"class.aie::detail::vector.12"* %this, i32 0, i32 0, !dbg !2137
  store %struct.ipd.custom_type.v16int8.v16int8 %v.coerce, %struct.ipd.custom_type.v16int8.v16int8* %data, align 16, !dbg !2138, !tbaa !2139
  ret void, !dbg !2140
}

; Function Attrs: alwaysinline nounwind mustprogress
define linkonce_odr dso_local nonnull align 32 dereferenceable(32) %"class.aie::detail::vector"* @_ZN3aie6detail6vectorIaLj32EE6insertILj16EEERS2_jRKNS1_IaXT_EEE(%"class.aie::detail::vector"* nonnull dereferenceable(32) %this, i32 %idx, %"class.aie::detail::vector.12"* nonnull align 16 dereferenceable(16) %v) addrspace(1) #8 comdat align 2 !dbg !2141 {
entry:
  %tmp9 = alloca %"class.aie::detail::vector.13", align 32
  %custom_type.tmp = alloca %"class.aie::detail::vector.13", align 32
  %input = alloca %"class.aie::detail::vector.13", align 32
  %ref.tmp = alloca %"class.aie::detail::vector.17", align 32
  %custom_type.tmp12 = alloca %"class.aie::detail::vector.13", align 32
  %agg.tmp13 = alloca %struct.v8cint32, align 32
  %agg.tmp14 = alloca %struct.v8cint32, align 32
  %ref.tmp15 = alloca %"class.aie::detail::vector.13", align 32
  %ref.tmp16 = alloca %"class.aie::detail::vector.17", align 32
  %agg.tmp20 = alloca %struct.v8cint32, align 32
  %ref.tmp26 = alloca %struct.v4cint32, align 32
  %agg.tmp27 = alloca %struct.v8cint32, align 32
  call addrspace(1) void @llvm.dbg.value(metadata %"class.aie::detail::vector"* %this, metadata !2149, metadata !DIExpression()), !dbg !2377
  call addrspace(1) void @llvm.dbg.value(metadata i32 %idx, metadata !2150, metadata !DIExpression()), !dbg !2377
  call addrspace(1) void @llvm.dbg.value(metadata %"class.aie::detail::vector.12"* %v, metadata !2151, metadata !DIExpression()), !dbg !2377
  %cmp = icmp ult i32 %idx, 2, !dbg !2378
  %0 = call addrspace(1) i1 @llvm.is.constant.i1(i1 %cmp), !dbg !2378
  br i1 %0, label %do.body, label %if.end4, !dbg !2380

do.body:                                          ; preds = %entry
  %cmp2 = icmp ult i32 %idx, 2, !dbg !2381
  %1 = call addrspace(1) i1 @llvm.chess_manifest(i1 %cmp2), !dbg !2381
  br i1 %1, label %if.end4, label %if.then3, !dbg !2385

if.then3:                                         ; preds = %do.body
  call addrspace(1) void @llvm.chess_error(metadata !2386), !dbg !2381
  unreachable, !dbg !2381

if.end4:                                          ; preds = %do.body, %entry
  %cmp5 = icmp ult i32 %idx, 2, !dbg !2380
  call addrspace(1) void @llvm.assume(i1 %cmp5), !dbg !2380
  call addrspace(1) void @llvm.dbg.value(metadata i32 undef, metadata !2152, metadata !DIExpression()), !dbg !2377
  call addrspace(1) void @llvm.dbg.value(metadata i32 128, metadata !2152, metadata !DIExpression()), !dbg !2377
  %2 = call addrspace(1) i1 @llvm.is.constant.i32(i32 %idx), !dbg !2387
  br i1 %2, label %if.then6, label %if.else, !dbg !2388

if.then6:                                         ; preds = %if.end4
  %data = getelementptr inbounds %"class.aie::detail::vector", %"class.aie::detail::vector"* %this, i32 0, i32 0, !dbg !2389
  %data7 = getelementptr inbounds %"class.aie::detail::vector", %"class.aie::detail::vector"* %this, i32 0, i32 0, !dbg !2395
  %call = call addrspace(1) %struct.ipd.custom_type.v16int8.v16int8 @_ZNK3aie6detail6vectorIaLj16EEcv7v16int8Ev(%"class.aie::detail::vector.12"* nonnull dereferenceable(16) %v) #26, !dbg !2396
  %3 = load %struct.ipd.custom_type.v32int8.v32int8, %struct.ipd.custom_type.v32int8.v32int8* %data7, align 32, !dbg !2397, !tbaa !2398
  %call8 = call addrspace(1) %struct.ipd.custom_type.v32int8.v32int8 @_Z5upd_v7v32int8i7v16int8(%struct.ipd.custom_type.v32int8.v32int8 %3, i32 %idx, %struct.ipd.custom_type.v16int8.v16int8 %call) #28, !dbg !2397
  store %struct.ipd.custom_type.v32int8.v32int8 %call8, %struct.ipd.custom_type.v32int8.v32int8* %data, align 32, !dbg !2397, !tbaa !1731
  br label %if.end31, !dbg !2399

if.else:                                          ; preds = %if.end4
  call addrspace(1) void @llvm.dbg.value(metadata i32 undef, metadata !2153, metadata !DIExpression()), !dbg !2400
  call addrspace(1) void @llvm.dbg.value(metadata i32 3, metadata !2153, metadata !DIExpression()), !dbg !2400
  call addrspace(1) void @llvm.dbg.value(metadata i32 undef, metadata !2159, metadata !DIExpression()), !dbg !2400
  call addrspace(1) void @llvm.dbg.value(metadata i32 2, metadata !2159, metadata !DIExpression()), !dbg !2400
  store %"class.aie::detail::vector.13" undef, %"class.aie::detail::vector.13"* %tmp9, align 32, !dbg !2401
  %4 = bitcast %"class.aie::detail::vector.13"* %tmp9 to i8*, !dbg !2401
  call addrspace(1) void @llvm.lifetime.start.p0i8(i64 64, i8* %4) #24, !dbg !2401
  call addrspace(1) void @llvm.dbg.declare(metadata %"class.aie::detail::vector.13"* %tmp9, metadata !2160, metadata !DIExpression()), !dbg !2402
  call addrspace(1) void @_ZN3aie6detail6vectorI6cint32Lj8EEC2Ev(%"class.aie::detail::vector.13"* nonnull dereferenceable(64) %custom_type.tmp) #26, !dbg !2402
  %5 = load %"class.aie::detail::vector.13", %"class.aie::detail::vector.13"* %custom_type.tmp, align 32, !dbg !2402, !tbaa !2403
  store %"class.aie::detail::vector.13" %5, %"class.aie::detail::vector.13"* %tmp9, align 32, !dbg !2402, !tbaa !2403
  call addrspace(1) void @llvm.dbg.value(metadata i32 undef, metadata !2371, metadata !DIExpression()), !dbg !2406
  %mul = mul i32 %idx, 2, !dbg !2407
  %shl = shl i32 3, %mul, !dbg !2408
  call addrspace(1) void @llvm.dbg.value(metadata i32 %shl, metadata !2371, metadata !DIExpression()), !dbg !2406
  store %"class.aie::detail::vector.13" undef, %"class.aie::detail::vector.13"* %input, align 32, !dbg !2409
  %6 = bitcast %"class.aie::detail::vector.13"* %input to i8*, !dbg !2409
  call addrspace(1) void @llvm.lifetime.start.p0i8(i64 64, i8* %6) #24, !dbg !2409
  call addrspace(1) void @llvm.dbg.declare(metadata %"class.aie::detail::vector.13"* %input, metadata !2376, metadata !DIExpression()), !dbg !2410
  %7 = bitcast %"class.aie::detail::vector.17"* %ref.tmp to i8*, !dbg !2411
  call addrspace(1) void @llvm.lifetime.start.p0i8(i64 64, i8* %7) #24, !dbg !2411
  %call10 = call addrspace(1) %"class.aie::detail::vector.17" @_ZNK3aie6detail6vectorIaLj16EE4growILj64EEENS1_IaXT_EEEj(%"class.aie::detail::vector.12"* nonnull dereferenceable(16) %v, i32 0) #26, !dbg !2412
  %8 = getelementptr inbounds %"class.aie::detail::vector.17", %"class.aie::detail::vector.17"* %ref.tmp, i32 0, i32 0, !dbg !2412
  %9 = extractvalue %"class.aie::detail::vector.17" %call10, 0, !dbg !2412
  store %struct.ipd.custom_type.v64int8.v64int8 %9, %struct.ipd.custom_type.v64int8.v64int8* %8, align 32, !dbg !2412
  %call11 = call addrspace(1) %"class.aie::detail::vector.13" @_ZNK3aie6detail6vectorIaLj64EE7cast_toI6cint32EEDav(%"class.aie::detail::vector.17"* nonnull dereferenceable(64) %ref.tmp) #26, !dbg !2413
  %10 = getelementptr inbounds %"class.aie::detail::vector.13", %"class.aie::detail::vector.13"* %input, i32 0, i32 0, !dbg !2413
  %11 = extractvalue %"class.aie::detail::vector.13" %call11, 0, !dbg !2413
  store %struct.v8cint32 %11, %struct.v8cint32* %10, align 32, !dbg !2413
  %12 = bitcast %"class.aie::detail::vector.17"* %ref.tmp to i8*, !dbg !2411
  call addrspace(1) void @llvm.lifetime.end.p0i8(i64 64, i8* %12) #24, !dbg !2411
  %13 = bitcast %"class.aie::detail::vector.13"* %ref.tmp15 to i8*, !dbg !2414
  call addrspace(1) void @llvm.lifetime.start.p0i8(i64 64, i8* %13) #24, !dbg !2414
  %14 = bitcast %"class.aie::detail::vector.17"* %ref.tmp16 to i8*, !dbg !2414
  call addrspace(1) void @llvm.lifetime.start.p0i8(i64 64, i8* %14) #24, !dbg !2414
  %call17 = call addrspace(1) %"class.aie::detail::vector.17" @_ZNK3aie6detail6vectorIaLj32EE4growILj64EEENS1_IaXT_EEEj(%"class.aie::detail::vector"* nonnull dereferenceable(32) %this, i32 0) #26, !dbg !2415
  %15 = getelementptr inbounds %"class.aie::detail::vector.17", %"class.aie::detail::vector.17"* %ref.tmp16, i32 0, i32 0, !dbg !2415
  %16 = extractvalue %"class.aie::detail::vector.17" %call17, 0, !dbg !2415
  store %struct.ipd.custom_type.v64int8.v64int8 %16, %struct.ipd.custom_type.v64int8.v64int8* %15, align 32, !dbg !2415
  %call18 = call addrspace(1) %"class.aie::detail::vector.13" @_ZNK3aie6detail6vectorIaLj64EE7cast_toI6cint32EEDav(%"class.aie::detail::vector.17"* nonnull dereferenceable(64) %ref.tmp16) #26, !dbg !2416
  %17 = getelementptr inbounds %"class.aie::detail::vector.13", %"class.aie::detail::vector.13"* %ref.tmp15, i32 0, i32 0, !dbg !2416
  %18 = extractvalue %"class.aie::detail::vector.13" %call18, 0, !dbg !2416
  store %struct.v8cint32 %18, %struct.v8cint32* %17, align 32, !dbg !2416
  %call19 = call addrspace(1) %struct.v8cint32 @_ZNK3aie6detail6vectorI6cint32Lj8EEcv8v8cint32Ev(%"class.aie::detail::vector.13"* nonnull dereferenceable(64) %ref.tmp15) #26, !dbg !2414
  %19 = getelementptr inbounds %struct.v8cint32, %struct.v8cint32* %agg.tmp14, i32 0, i32 0, !dbg !2414
  %20 = extractvalue %struct.v8cint32 %call19, 0, !dbg !2414
  store %struct.ipd.custom_type.v64int8.v64int8 %20, %struct.ipd.custom_type.v64int8.v64int8* %19, align 32, !dbg !2414
  %call21 = call addrspace(1) %struct.v8cint32 @_ZNK3aie6detail6vectorI6cint32Lj8EEcv8v8cint32Ev(%"class.aie::detail::vector.13"* nonnull dereferenceable(64) %input) #26, !dbg !2417
  %21 = getelementptr inbounds %struct.v8cint32, %struct.v8cint32* %agg.tmp20, i32 0, i32 0, !dbg !2417
  %22 = extractvalue %struct.v8cint32 %call21, 0, !dbg !2417
  store %struct.ipd.custom_type.v64int8.v64int8 %22, %struct.ipd.custom_type.v64int8.v64int8* %21, align 32, !dbg !2417
  %mul22 = mul i32 %idx, 2, !dbg !2418
  %sub = sub i32 0, %mul22, !dbg !2419
  %23 = load %struct.v8cint32, %struct.v8cint32* %agg.tmp14, align 32, !dbg !2420, !tbaa !2421
  %24 = load %struct.v8cint32, %struct.v8cint32* %agg.tmp20, align 32, !dbg !2420, !tbaa !2421
  %call23 = call addrspace(1) %struct.v8cint32 @_Z7select8j8v8cint32ijS_ij(i32 %shl, %struct.v8cint32 %23, i32 0, i32 1985229328, %struct.v8cint32 %24, i32 %sub, i32 1985229328) #26, !dbg !2420
  %25 = getelementptr inbounds %struct.v8cint32, %struct.v8cint32* %agg.tmp13, i32 0, i32 0, !dbg !2420
  %26 = extractvalue %struct.v8cint32 %call23, 0, !dbg !2420
  store %struct.ipd.custom_type.v64int8.v64int8 %26, %struct.ipd.custom_type.v64int8.v64int8* %25, align 32, !dbg !2420
  %27 = load %struct.v8cint32, %struct.v8cint32* %agg.tmp13, align 32, !dbg !2420, !tbaa !2421
  call addrspace(1) void @_ZN3aie6detail6vectorI6cint32Lj8EEC2E8v8cint32(%"class.aie::detail::vector.13"* nonnull dereferenceable(64) %custom_type.tmp12, %struct.v8cint32 %27) #26, !dbg !2420
  %28 = load %"class.aie::detail::vector.13", %"class.aie::detail::vector.13"* %custom_type.tmp12, align 32, !dbg !2420, !tbaa !2403
  store %"class.aie::detail::vector.13" %28, %"class.aie::detail::vector.13"* %tmp9, align 32, !dbg !2420, !tbaa !2403
  %29 = bitcast %"class.aie::detail::vector.17"* %ref.tmp16 to i8*, !dbg !2422
  call addrspace(1) void @llvm.lifetime.end.p0i8(i64 64, i8* %29) #24, !dbg !2422
  %30 = bitcast %"class.aie::detail::vector.13"* %ref.tmp15 to i8*, !dbg !2422
  call addrspace(1) void @llvm.lifetime.end.p0i8(i64 64, i8* %30) #24, !dbg !2422
  %data24 = getelementptr inbounds %"class.aie::detail::vector", %"class.aie::detail::vector"* %this, i32 0, i32 0, !dbg !2423
  %31 = bitcast %struct.v4cint32* %ref.tmp26 to i8*, !dbg !2424
  call addrspace(1) void @llvm.lifetime.start.p0i8(i64 32, i8* %31) #24, !dbg !2424
  %call28 = call addrspace(1) %struct.v8cint32 @_ZNK3aie6detail6vectorI6cint32Lj8EEcv8v8cint32Ev(%"class.aie::detail::vector.13"* nonnull dereferenceable(64) %tmp9) #26, !dbg !2425
  %32 = getelementptr inbounds %struct.v8cint32, %struct.v8cint32* %agg.tmp27, i32 0, i32 0, !dbg !2425
  %33 = extractvalue %struct.v8cint32 %call28, 0, !dbg !2425
  store %struct.ipd.custom_type.v64int8.v64int8 %33, %struct.ipd.custom_type.v64int8.v64int8* %32, align 32, !dbg !2425
  %34 = load %struct.v8cint32, %struct.v8cint32* %agg.tmp27, align 32, !dbg !2424, !tbaa !2421
  %call29 = call addrspace(1) %struct.v4cint32 @_Z5ext_w8v8cint32i(%struct.v8cint32 %34, i32 0) #28, !dbg !2424
  %35 = getelementptr inbounds %struct.v4cint32, %struct.v4cint32* %ref.tmp26, i32 0, i32 0, !dbg !2424
  %36 = extractvalue %struct.v4cint32 %call29, 0, !dbg !2424
  store %struct.ipd.custom_type.v32int8.v32int8 %36, %struct.ipd.custom_type.v32int8.v32int8* %35, align 32, !dbg !2424
  %call30 = call addrspace(1) %struct.ipd.custom_type.v32int8.v32int8 @_ZN3aie6detailL18vector_cast_helperIaLj32E8v4cint32EENS0_14vector_storageIT_XT0_EE4typeEOT1_(%struct.v4cint32* nonnull align 32 dereferenceable(32) %ref.tmp26) #26, !dbg !2426
  store %struct.ipd.custom_type.v32int8.v32int8 %call30, %struct.ipd.custom_type.v32int8.v32int8* %data24, align 32, !dbg !2426, !tbaa !1731
  %37 = bitcast %struct.v4cint32* %ref.tmp26 to i8*, !dbg !2423
  call addrspace(1) void @llvm.lifetime.end.p0i8(i64 32, i8* %37) #24, !dbg !2423
  %38 = bitcast %"class.aie::detail::vector.13"* %input to i8*, !dbg !2427
  call addrspace(1) void @llvm.lifetime.end.p0i8(i64 64, i8* %38) #24, !dbg !2427
  %39 = bitcast %"class.aie::detail::vector.13"* %tmp9 to i8*, !dbg !2428
  call addrspace(1) void @llvm.lifetime.end.p0i8(i64 64, i8* %39) #24, !dbg !2428
  br label %if.end31

if.end31:                                         ; preds = %if.else, %if.then6
  ret %"class.aie::detail::vector"* %this, !dbg !2429
}

; Function Attrs: convergent nofree nosync nounwind readnone willreturn
declare i1 @llvm.is.constant.i1(i1) addrspace(1) #18

; Function Attrs: nounwind readnone willreturn
declare i1 @llvm.chess_manifest(i1) addrspace(1) #13

; Function Attrs: noreturn nounwind
declare void @llvm.chess_error(metadata) addrspace(1) #19

; Function Attrs: nofree nosync nounwind willreturn
declare void @llvm.assume(i1 noundef) addrspace(1) #20

; Function Attrs: convergent nofree nosync nounwind readnone willreturn
declare i1 @llvm.is.constant.i32(i32) addrspace(1) #18

; Function Attrs: alwaysinline nounwind mustprogress
define linkonce_odr dso_local %struct.ipd.custom_type.v16int8.v16int8 @_ZNK3aie6detail6vectorIaLj16EEcv7v16int8Ev(%"class.aie::detail::vector.12"* nonnull dereferenceable(16) %this) addrspace(1) #8 comdat align 2 !dbg !2430 {
entry:
  call addrspace(1) void @llvm.dbg.value(metadata %"class.aie::detail::vector.12"* %this, metadata !2432, metadata !DIExpression()), !dbg !2434
  %call = call addrspace(1) %struct.ipd.custom_type.v16int8.v16int8 @_ZNK3aie6detail6vectorIaLj16EE9to_nativeEv(%"class.aie::detail::vector.12"* nonnull dereferenceable(16) %this) #26, !dbg !2435
  ret %struct.ipd.custom_type.v16int8.v16int8 %call, !dbg !2435
}

; Function Attrs: alwaysinline nounwind mustprogress
define linkonce_odr dso_local %struct.ipd.custom_type.v32int8.v32int8 @_Z5upd_v7v32int8i7v16int8(%struct.ipd.custom_type.v32int8.v32int8 %a0.coerce, i32 %a1, %struct.ipd.custom_type.v16int8.v16int8 %a2.coerce) addrspace(1) #9 comdat {
entry:
  %a0 = alloca %struct.ipd.custom_type.v32int8.v32int8, align 32
  %a2 = alloca %struct.ipd.custom_type.v16int8.v16int8, align 16
  %a1.addr = alloca i32, align 4
  store %struct.ipd.custom_type.v32int8.v32int8 %a0.coerce, %struct.ipd.custom_type.v32int8.v32int8* %a0, align 32
  store %struct.ipd.custom_type.v16int8.v16int8 %a2.coerce, %struct.ipd.custom_type.v16int8.v16int8* %a2, align 16
  store i32 %a1, i32* %a1.addr, align 4, !tbaa !706
  %0 = load i32, i32* %a1.addr, align 4, !tbaa !706
  %1 = load %struct.ipd.custom_type.v32int8.v32int8, %struct.ipd.custom_type.v32int8.v32int8* %a0, align 32, !tbaa !1731
  %2 = load %struct.ipd.custom_type.v16int8.v16int8, %struct.ipd.custom_type.v16int8.v16int8* %a2, align 16, !tbaa !2139
  %call = call x86_regcallcc addrspace(1) %struct.ipd.custom_type.v32int8.v32int8 @__regcall3__chessintr_v32int8_upd_v_v32int8___sint_v16int8(%struct.ipd.custom_type.v32int8.v32int8 %1, i32 signext %0, %struct.ipd.custom_type.v16int8.v16int8 %2) #33
  ret %struct.ipd.custom_type.v32int8.v32int8 %call
}

; Function Attrs: alwaysinline nounwind
define linkonce_odr dso_local void @_ZN3aie6detail6vectorI6cint32Lj8EEC2Ev(%"class.aie::detail::vector.13"* nonnull dereferenceable(64) %this) unnamed_addr addrspace(1) #10 comdat align 2 !dbg !2436 {
entry:
  call addrspace(1) void @llvm.dbg.value(metadata %"class.aie::detail::vector.13"* %this, metadata !2438, metadata !DIExpression()), !dbg !2440
  %data = getelementptr inbounds %"class.aie::detail::vector.13", %"class.aie::detail::vector.13"* %this, i32 0, i32 0, !dbg !2441
  %call = call addrspace(1) %struct.v8cint32 @_ZN3aie6detail14vector_storageI6cint32Lj8EE5undefEv() #26, !dbg !2442
  %0 = getelementptr inbounds %struct.v8cint32, %struct.v8cint32* %data, i32 0, i32 0, !dbg !2442
  %1 = extractvalue %struct.v8cint32 %call, 0, !dbg !2442
  store %struct.ipd.custom_type.v64int8.v64int8 %1, %struct.ipd.custom_type.v64int8.v64int8* %0, align 32, !dbg !2442
  ret void, !dbg !2443
}

; Function Attrs: alwaysinline nounwind mustprogress
define linkonce_odr dso_local %"class.aie::detail::vector.17" @_ZNK3aie6detail6vectorIaLj16EE4growILj64EEENS1_IaXT_EEEj(%"class.aie::detail::vector.12"* nonnull dereferenceable(16) %this, i32 %idx) addrspace(1) #8 comdat align 2 !dbg !2444 {
entry:
  %retval = alloca %"class.aie::detail::vector.17", align 32
  %custom_type.tmp = alloca %"class.aie::detail::vector.17", align 32
  call addrspace(1) void @llvm.dbg.value(metadata %"class.aie::detail::vector.12"* %this, metadata !2671, metadata !DIExpression()), !dbg !2675
  call addrspace(1) void @llvm.dbg.value(metadata i32 0, metadata !2672, metadata !DIExpression()), !dbg !2675
  call addrspace(1) void @llvm.dbg.value(metadata i32 undef, metadata !2673, metadata !DIExpression()), !dbg !2675
  call addrspace(1) void @llvm.dbg.value(metadata i32 512, metadata !2673, metadata !DIExpression()), !dbg !2675
  call addrspace(1) void @llvm.dbg.declare(metadata %"class.aie::detail::vector.17"* %retval, metadata !2674, metadata !DIExpression()), !dbg !2676
  call addrspace(1) void @_ZN3aie6detail6vectorIaLj64EEC2Ev(%"class.aie::detail::vector.17"* nonnull dereferenceable(64) %custom_type.tmp) #26, !dbg !2676
  %0 = load %"class.aie::detail::vector.17", %"class.aie::detail::vector.17"* %custom_type.tmp, align 32, !dbg !2676, !tbaa !2677
  store %"class.aie::detail::vector.17" %0, %"class.aie::detail::vector.17"* %retval, align 32, !dbg !2676, !tbaa !2677
  %data = getelementptr inbounds %"class.aie::detail::vector.17", %"class.aie::detail::vector.17"* %retval, i32 0, i32 0, !dbg !2679
  %data2 = getelementptr inbounds %"class.aie::detail::vector.12", %"class.aie::detail::vector.12"* %this, i32 0, i32 0, !dbg !2687
  %1 = load %struct.ipd.custom_type.v16int8.v16int8, %struct.ipd.custom_type.v16int8.v16int8* %data2, align 16, !dbg !2688, !tbaa !2689
  %call = call addrspace(1) %struct.ipd.custom_type.v64int8.v64int8 @_Z6xset_vi7v16int8(i32 0, %struct.ipd.custom_type.v16int8.v16int8 %1) #28, !dbg !2688
  store %struct.ipd.custom_type.v64int8.v64int8 %call, %struct.ipd.custom_type.v64int8.v64int8* %data, align 32, !dbg !2688, !tbaa !2421
  %2 = load %"class.aie::detail::vector.17", %"class.aie::detail::vector.17"* %retval, align 32, !dbg !2690
  ret %"class.aie::detail::vector.17" %2, !dbg !2690
}

; Function Attrs: alwaysinline nounwind mustprogress
define linkonce_odr dso_local %"class.aie::detail::vector.13" @_ZNK3aie6detail6vectorIaLj64EE7cast_toI6cint32EEDav(%"class.aie::detail::vector.17"* nonnull dereferenceable(64) %this) addrspace(1) #8 comdat align 2 !dbg !2691 {
entry:
  %ret = alloca %"class.aie::detail::vector.13", align 32
  %custom_type.tmp = alloca %"class.aie::detail::vector.13", align 32
  %tmp = alloca %struct.v8cint32, align 32
  call addrspace(1) void @llvm.dbg.value(metadata %"class.aie::detail::vector.17"* %this, metadata !2700, metadata !DIExpression()), !dbg !2705
  call addrspace(1) void @llvm.dbg.value(metadata i32 undef, metadata !2702, metadata !DIExpression()), !dbg !2705
  call addrspace(1) void @llvm.dbg.value(metadata i32 64, metadata !2702, metadata !DIExpression()), !dbg !2705
  call addrspace(1) void @llvm.dbg.value(metadata i32 undef, metadata !2703, metadata !DIExpression()), !dbg !2705
  call addrspace(1) void @llvm.dbg.value(metadata i32 8, metadata !2703, metadata !DIExpression()), !dbg !2705
  store %"class.aie::detail::vector.13" undef, %"class.aie::detail::vector.13"* %ret, align 32, !dbg !2706
  %0 = bitcast %"class.aie::detail::vector.13"* %ret to i8*, !dbg !2706
  call addrspace(1) void @llvm.lifetime.start.p0i8(i64 64, i8* %0) #24, !dbg !2706
  call addrspace(1) void @llvm.dbg.declare(metadata %"class.aie::detail::vector.13"* %ret, metadata !2704, metadata !DIExpression()), !dbg !2707
  call addrspace(1) void @_ZN3aie6detail6vectorI6cint32Lj8EEC2Ev(%"class.aie::detail::vector.13"* nonnull dereferenceable(64) %custom_type.tmp) #26, !dbg !2707
  %1 = load %"class.aie::detail::vector.13", %"class.aie::detail::vector.13"* %custom_type.tmp, align 32, !dbg !2707, !tbaa !2403
  store %"class.aie::detail::vector.13" %1, %"class.aie::detail::vector.13"* %ret, align 32, !dbg !2707, !tbaa !2403
  %data = getelementptr inbounds %"class.aie::detail::vector.13", %"class.aie::detail::vector.13"* %ret, i32 0, i32 0, !dbg !2708
  %2 = bitcast %struct.v8cint32* %tmp to i8*, !dbg !2709
  call addrspace(1) void @llvm.lifetime.start.p0i8(i64 64, i8* %2) #24, !dbg !2709
  %data2 = getelementptr inbounds %"class.aie::detail::vector.17", %"class.aie::detail::vector.17"* %this, i32 0, i32 0, !dbg !2710
  %call = call addrspace(1) %struct.v8cint32 @_ZN3aie6detailL18vector_cast_helperI6cint32Lj8ERK7v64int8EENS0_14vector_storageIT_XT0_EE4typeEOT1_(%struct.ipd.custom_type.v64int8.v64int8* nonnull align 32 dereferenceable(64) %data2) #26, !dbg !2709
  %3 = getelementptr inbounds %struct.v8cint32, %struct.v8cint32* %tmp, i32 0, i32 0, !dbg !2709
  %4 = extractvalue %struct.v8cint32 %call, 0, !dbg !2709
  store %struct.ipd.custom_type.v64int8.v64int8 %4, %struct.ipd.custom_type.v64int8.v64int8* %3, align 32, !dbg !2709
  %5 = load %struct.v8cint32, %struct.v8cint32* %tmp, align 32, !dbg !2709, !tbaa !2421
  store %struct.v8cint32 %5, %struct.v8cint32* %data, align 32, !dbg !2709, !tbaa !2421
  %6 = bitcast %struct.v8cint32* %tmp to i8*, !dbg !2709
  call addrspace(1) void @llvm.lifetime.end.p0i8(i64 64, i8* %6) #24, !dbg !2709
  %7 = load %"class.aie::detail::vector.13", %"class.aie::detail::vector.13"* %ret, align 32, !dbg !2711, !tbaa !2403
  %8 = bitcast %"class.aie::detail::vector.13"* %ret to i8*, !dbg !2712
  call addrspace(1) void @llvm.lifetime.end.p0i8(i64 64, i8* %8) #24, !dbg !2712
  ret %"class.aie::detail::vector.13" %7, !dbg !2711
}

; Function Attrs: alwaysinline nounwind mustprogress
define linkonce_odr dso_local %"class.aie::detail::vector.17" @_ZNK3aie6detail6vectorIaLj32EE4growILj64EEENS1_IaXT_EEEj(%"class.aie::detail::vector"* nonnull dereferenceable(32) %this, i32 %idx) addrspace(1) #8 comdat align 2 !dbg !2713 {
entry:
  %retval = alloca %"class.aie::detail::vector.17", align 32
  %custom_type.tmp = alloca %"class.aie::detail::vector.17", align 32
  call addrspace(1) void @llvm.dbg.value(metadata %"class.aie::detail::vector"* %this, metadata !2718, metadata !DIExpression()), !dbg !2722
  call addrspace(1) void @llvm.dbg.value(metadata i32 0, metadata !2719, metadata !DIExpression()), !dbg !2722
  call addrspace(1) void @llvm.dbg.value(metadata i32 undef, metadata !2720, metadata !DIExpression()), !dbg !2722
  call addrspace(1) void @llvm.dbg.value(metadata i32 512, metadata !2720, metadata !DIExpression()), !dbg !2722
  call addrspace(1) void @llvm.dbg.declare(metadata %"class.aie::detail::vector.17"* %retval, metadata !2721, metadata !DIExpression()), !dbg !2723
  call addrspace(1) void @_ZN3aie6detail6vectorIaLj64EEC2Ev(%"class.aie::detail::vector.17"* nonnull dereferenceable(64) %custom_type.tmp) #26, !dbg !2723
  %0 = load %"class.aie::detail::vector.17", %"class.aie::detail::vector.17"* %custom_type.tmp, align 32, !dbg !2723, !tbaa !2677
  store %"class.aie::detail::vector.17" %0, %"class.aie::detail::vector.17"* %retval, align 32, !dbg !2723, !tbaa !2677
  %data = getelementptr inbounds %"class.aie::detail::vector.17", %"class.aie::detail::vector.17"* %retval, i32 0, i32 0, !dbg !2724
  %data2 = getelementptr inbounds %"class.aie::detail::vector", %"class.aie::detail::vector"* %this, i32 0, i32 0, !dbg !2731
  %1 = load %struct.ipd.custom_type.v32int8.v32int8, %struct.ipd.custom_type.v32int8.v32int8* %data2, align 32, !dbg !2732, !tbaa !2398
  %call = call addrspace(1) %struct.ipd.custom_type.v64int8.v64int8 @_Z6xset_wi7v32int8(i32 0, %struct.ipd.custom_type.v32int8.v32int8 %1) #28, !dbg !2732
  store %struct.ipd.custom_type.v64int8.v64int8 %call, %struct.ipd.custom_type.v64int8.v64int8* %data, align 32, !dbg !2732, !tbaa !2421
  %2 = load %"class.aie::detail::vector.17", %"class.aie::detail::vector.17"* %retval, align 32, !dbg !2733
  ret %"class.aie::detail::vector.17" %2, !dbg !2733
}

; Function Attrs: alwaysinline nounwind mustprogress
define linkonce_odr dso_local %struct.v8cint32 @_ZNK3aie6detail6vectorI6cint32Lj8EEcv8v8cint32Ev(%"class.aie::detail::vector.13"* nonnull dereferenceable(64) %this) addrspace(1) #8 comdat align 2 !dbg !2734 {
entry:
  %retval = alloca %struct.v8cint32, align 32
  call addrspace(1) void @llvm.dbg.value(metadata %"class.aie::detail::vector.13"* %this, metadata !2736, metadata !DIExpression()), !dbg !2738
  %call = call addrspace(1) %struct.v8cint32 @_ZNK3aie6detail6vectorI6cint32Lj8EE9to_nativeEv(%"class.aie::detail::vector.13"* nonnull dereferenceable(64) %this) #26, !dbg !2739
  %0 = getelementptr inbounds %struct.v8cint32, %struct.v8cint32* %retval, i32 0, i32 0, !dbg !2739
  %1 = extractvalue %struct.v8cint32 %call, 0, !dbg !2739
  store %struct.ipd.custom_type.v64int8.v64int8 %1, %struct.ipd.custom_type.v64int8.v64int8* %0, align 32, !dbg !2739
  %2 = load %struct.v8cint32, %struct.v8cint32* %retval, align 32, !dbg !2740
  ret %struct.v8cint32 %2, !dbg !2740
}

; Function Attrs: alwaysinline nounwind mustprogress
define linkonce_odr dso_local %struct.v8cint32 @_Z7select8j8v8cint32ijS_ij(i32 %a0, %struct.v8cint32 %a1.coerce, i32 %a2, i32 %a3, %struct.v8cint32 %a4.coerce, i32 %a5, i32 %a6) addrspace(1) #8 comdat {
entry:
  %retval = alloca %struct.v8cint32, align 32
  %a1 = alloca %struct.v8cint32, align 32
  %a4 = alloca %struct.v8cint32, align 32
  %a0.addr = alloca i32, align 4
  %a2.addr = alloca i32, align 4
  %a3.addr = alloca i32, align 4
  %a5.addr = alloca i32, align 4
  %a6.addr = alloca i32, align 4
  store %struct.v8cint32 %a1.coerce, %struct.v8cint32* %a1, align 32
  store %struct.v8cint32 %a4.coerce, %struct.v8cint32* %a4, align 32
  store i32 %a0, i32* %a0.addr, align 4, !tbaa !706
  store i32 0, i32* %a2.addr, align 4, !tbaa !706
  store i32 1985229328, i32* %a3.addr, align 4, !tbaa !706
  store i32 %a5, i32* %a5.addr, align 4, !tbaa !706
  store i32 1985229328, i32* %a6.addr, align 4, !tbaa !706
  %0 = load i32, i32* %a0.addr, align 4, !tbaa !706
  %1 = load i32, i32* %a2.addr, align 4, !tbaa !706
  %2 = load i32, i32* %a3.addr, align 4, !tbaa !706
  %3 = load i32, i32* %a5.addr, align 4, !tbaa !706
  %4 = load i32, i32* %a6.addr, align 4, !tbaa !706
  %5 = load %struct.v8cint32, %struct.v8cint32* %a1, align 32, !tbaa !2421
  %6 = load %struct.v8cint32, %struct.v8cint32* %a4, align 32, !tbaa !2421
  %call = call x86_regcallcc addrspace(1) %struct.v8cint32 @__regcall3__chessintr_v8cint32_select8___uint_v8cint32___sint___uint_v8cint32___sint___uint(i32 zeroext %0, %struct.v8cint32 %5, i32 signext %1, i32 zeroext %2, %struct.v8cint32 %6, i32 signext %3, i32 zeroext %4) #33
  %7 = getelementptr inbounds %struct.v8cint32, %struct.v8cint32* %retval, i32 0, i32 0
  %8 = extractvalue %struct.v8cint32 %call, 0
  store %struct.ipd.custom_type.v64int8.v64int8 %8, %struct.ipd.custom_type.v64int8.v64int8* %7, align 32
  %9 = load %struct.v8cint32, %struct.v8cint32* %retval, align 32
  ret %struct.v8cint32 %9
}

; Function Attrs: alwaysinline nounwind
define linkonce_odr dso_local void @_ZN3aie6detail6vectorI6cint32Lj8EEC2E8v8cint32(%"class.aie::detail::vector.13"* nonnull dereferenceable(64) %this, %struct.v8cint32 %v.coerce) unnamed_addr addrspace(1) #10 comdat align 2 !dbg !2741 {
entry:
  call addrspace(1) void @llvm.dbg.value(metadata %struct.v8cint32 %v.coerce, metadata !2744, metadata !DIExpression()), !dbg !2745
  call addrspace(1) void @llvm.dbg.value(metadata %"class.aie::detail::vector.13"* %this, metadata !2743, metadata !DIExpression()), !dbg !2745
  %data = getelementptr inbounds %"class.aie::detail::vector.13", %"class.aie::detail::vector.13"* %this, i32 0, i32 0, !dbg !2746
  store %struct.v8cint32 %v.coerce, %struct.v8cint32* %data, align 32, !dbg !2747, !tbaa !2421
  ret void, !dbg !2748
}

; Function Attrs: alwaysinline nounwind mustprogress
define linkonce_odr dso_local %struct.v4cint32 @_Z5ext_w8v8cint32i(%struct.v8cint32 %a0.coerce, i32 %a1) addrspace(1) #9 comdat {
entry:
  %retval = alloca %struct.v4cint32, align 32
  %a0 = alloca %struct.v8cint32, align 32
  %a1.addr = alloca i32, align 4
  store %struct.v8cint32 %a0.coerce, %struct.v8cint32* %a0, align 32
  store i32 0, i32* %a1.addr, align 4, !tbaa !706
  %0 = load i32, i32* %a1.addr, align 4, !tbaa !706
  %1 = load %struct.v8cint32, %struct.v8cint32* %a0, align 32, !tbaa !2421
  %call = call x86_regcallcc addrspace(1) %struct.v4cint32 @__regcall3__chessintr_v4cint32_ext_w_v8cint32___sint(%struct.v8cint32 %1, i32 signext %0) #33
  %2 = getelementptr inbounds %struct.v4cint32, %struct.v4cint32* %retval, i32 0, i32 0
  %3 = extractvalue %struct.v4cint32 %call, 0
  store %struct.ipd.custom_type.v32int8.v32int8 %3, %struct.ipd.custom_type.v32int8.v32int8* %2, align 32
  %4 = load %struct.v4cint32, %struct.v4cint32* %retval, align 32
  ret %struct.v4cint32 %4
}

; Function Attrs: nounwind mustprogress
define internal %struct.ipd.custom_type.v32int8.v32int8 @_ZN3aie6detailL18vector_cast_helperIaLj32E8v4cint32EENS0_14vector_storageIT_XT0_EE4typeEOT1_(%struct.v4cint32* nonnull align 32 dereferenceable(32) %from) addrspace(1) #16 !dbg !2749 {
entry:
  call addrspace(1) void @llvm.dbg.value(metadata %struct.v4cint32* %from, metadata !2755, metadata !DIExpression()), !dbg !2760
  %0 = load %struct.v4cint32, %struct.v4cint32* %from, align 32, !dbg !2761, !tbaa !1731
  %call = call addrspace(1) %struct.ipd.custom_type.v32int8.v32int8 @_Z10as_v32int88v4cint32(%struct.v4cint32 %0) #26, !dbg !2761
  ret %struct.ipd.custom_type.v32int8.v32int8 %call, !dbg !2761
}

; Function Attrs: alwaysinline nounwind mustprogress
define linkonce_odr dso_local %struct.ipd.custom_type.v32int8.v32int8 @_Z10as_v32int88v4cint32(%struct.v4cint32 %a.coerce) addrspace(1) #8 comdat {
entry:
  %a = alloca %struct.v4cint32, align 32
  store %struct.v4cint32 %a.coerce, %struct.v4cint32* %a, align 32
  %mw = getelementptr inbounds %struct.v4cint32, %struct.v4cint32* %a, i32 0, i32 0
  %0 = load %struct.ipd.custom_type.v32int8.v32int8, %struct.ipd.custom_type.v32int8.v32int8* %mw, align 32, !tbaa !1731
  ret %struct.ipd.custom_type.v32int8.v32int8 %0
}

; Function Attrs: nounwind readnone willreturn
declare dso_local x86_regcallcc %struct.v4cint32 @__regcall3__chessintr_v4cint32_ext_w_v8cint32___sint(%struct.v8cint32, i32 signext) addrspace(1) #12

; Function Attrs: nounwind readnone willreturn
declare dso_local x86_regcallcc %struct.v8cint32 @__regcall3__chessintr_v8cint32_select8___uint_v8cint32___sint___uint_v8cint32___sint___uint(i32 zeroext, %struct.v8cint32, i32 signext, i32 zeroext, %struct.v8cint32, i32 signext, i32 zeroext) addrspace(1) #12

; Function Attrs: alwaysinline nounwind mustprogress
define linkonce_odr dso_local %struct.v8cint32 @_ZNK3aie6detail6vectorI6cint32Lj8EE9to_nativeEv(%"class.aie::detail::vector.13"* nonnull dereferenceable(64) %this) addrspace(1) #8 comdat align 2 !dbg !2763 {
entry:
  call addrspace(1) void @llvm.dbg.value(metadata %"class.aie::detail::vector.13"* %this, metadata !2770, metadata !DIExpression()), !dbg !2771
  %data = getelementptr inbounds %"class.aie::detail::vector.13", %"class.aie::detail::vector.13"* %this, i32 0, i32 0, !dbg !2772
  %0 = load %struct.v8cint32, %struct.v8cint32* %data, align 32, !dbg !2772, !tbaa !2421
  ret %struct.v8cint32 %0, !dbg !2772
}

; Function Attrs: alwaysinline nounwind
define linkonce_odr dso_local void @_ZN3aie6detail6vectorIaLj64EEC2Ev(%"class.aie::detail::vector.17"* nonnull dereferenceable(64) %this) unnamed_addr addrspace(1) #10 comdat align 2 !dbg !2774 {
entry:
  call addrspace(1) void @llvm.dbg.value(metadata %"class.aie::detail::vector.17"* %this, metadata !2776, metadata !DIExpression()), !dbg !2778
  %data = getelementptr inbounds %"class.aie::detail::vector.17", %"class.aie::detail::vector.17"* %this, i32 0, i32 0, !dbg !2779
  %call = call addrspace(1) %struct.ipd.custom_type.v64int8.v64int8 @_ZN3aie6detail14vector_storageIaLj64EE5undefEv() #26, !dbg !2780
  store %struct.ipd.custom_type.v64int8.v64int8 %call, %struct.ipd.custom_type.v64int8.v64int8* %data, align 32, !dbg !2780
  ret void, !dbg !2781
}

; Function Attrs: alwaysinline nounwind mustprogress
define linkonce_odr dso_local %struct.ipd.custom_type.v64int8.v64int8 @_Z6xset_wi7v32int8(i32 %a0, %struct.ipd.custom_type.v32int8.v32int8 %a1.coerce) addrspace(1) #9 comdat {
entry:
  %a1 = alloca %struct.ipd.custom_type.v32int8.v32int8, align 32
  %a0.addr = alloca i32, align 4
  store %struct.ipd.custom_type.v32int8.v32int8 %a1.coerce, %struct.ipd.custom_type.v32int8.v32int8* %a1, align 32
  store i32 0, i32* %a0.addr, align 4, !tbaa !706
  %0 = load i32, i32* %a0.addr, align 4, !tbaa !706
  %1 = load %struct.ipd.custom_type.v32int8.v32int8, %struct.ipd.custom_type.v32int8.v32int8* %a1, align 32, !tbaa !1731
  %call = call x86_regcallcc addrspace(1) %struct.ipd.custom_type.v64int8.v64int8 @__regcall3__chessintr_v64int8_xset_w___sint_v32int8(i32 signext %0, %struct.ipd.custom_type.v32int8.v32int8 %1) #33
  ret %struct.ipd.custom_type.v64int8.v64int8 %call
}

; Function Attrs: nounwind readnone willreturn
declare dso_local x86_regcallcc %struct.ipd.custom_type.v64int8.v64int8 @__regcall3__chessintr_v64int8_xset_w___sint_v32int8(i32 signext, %struct.ipd.custom_type.v32int8.v32int8) addrspace(1) #12

; Function Attrs: nounwind mustprogress
define linkonce_odr dso_local %struct.ipd.custom_type.v64int8.v64int8 @_ZN3aie6detail14vector_storageIaLj64EE5undefEv() addrspace(1) #16 comdat align 2 !dbg !2782 {
entry:
  %call = call addrspace(1) %struct.ipd.custom_type.v64int8.v64int8 @_Z13undef_v64int8v() #26, !dbg !2783
  ret %struct.ipd.custom_type.v64int8.v64int8 %call, !dbg !2783
}

; Function Attrs: alwaysinline nounwind mustprogress
define linkonce_odr dso_local %struct.ipd.custom_type.v64int8.v64int8 @_Z13undef_v64int8v() addrspace(1) #8 comdat {
entry:
  %call = call x86_regcallcc addrspace(1) %struct.ipd.custom_type.v64int8.v64int8 @__regcall3__chessintr_v64int8_undef_v64int8() #33
  ret %struct.ipd.custom_type.v64int8.v64int8 %call
}

; Function Attrs: nounwind readnone willreturn
declare dso_local x86_regcallcc %struct.ipd.custom_type.v64int8.v64int8 @__regcall3__chessintr_v64int8_undef_v64int8() addrspace(1) #12

; Function Attrs: nounwind mustprogress
define internal %struct.v8cint32 @_ZN3aie6detailL18vector_cast_helperI6cint32Lj8ERK7v64int8EENS0_14vector_storageIT_XT0_EE4typeEOT1_(%struct.ipd.custom_type.v64int8.v64int8* nonnull align 32 dereferenceable(64) %from) addrspace(1) #16 !dbg !2784 {
entry:
  %retval = alloca %struct.v8cint32, align 32
  call addrspace(1) void @llvm.dbg.value(metadata %struct.ipd.custom_type.v64int8.v64int8* %from, metadata !2790, metadata !DIExpression()), !dbg !2794
  %0 = load %struct.ipd.custom_type.v64int8.v64int8, %struct.ipd.custom_type.v64int8.v64int8* %from, align 32, !dbg !2795, !tbaa !2421
  %call = call addrspace(1) %struct.v8cint32 @_Z11as_v8cint327v64int8(%struct.ipd.custom_type.v64int8.v64int8 %0) #26, !dbg !2795
  %1 = getelementptr inbounds %struct.v8cint32, %struct.v8cint32* %retval, i32 0, i32 0, !dbg !2795
  %2 = extractvalue %struct.v8cint32 %call, 0, !dbg !2795
  store %struct.ipd.custom_type.v64int8.v64int8 %2, %struct.ipd.custom_type.v64int8.v64int8* %1, align 32, !dbg !2795
  %3 = load %struct.v8cint32, %struct.v8cint32* %retval, align 32, !dbg !2797
  ret %struct.v8cint32 %3, !dbg !2797
}

; Function Attrs: alwaysinline nounwind mustprogress
define linkonce_odr dso_local %struct.v8cint32 @_Z11as_v8cint327v64int8(%struct.ipd.custom_type.v64int8.v64int8 %a.coerce) addrspace(1) #8 comdat {
entry:
  %a = alloca %struct.ipd.custom_type.v64int8.v64int8, align 32
  %custom_type.tmp = alloca %struct.v8cint32, align 32
  store %struct.ipd.custom_type.v64int8.v64int8 %a.coerce, %struct.ipd.custom_type.v64int8.v64int8* %a, align 32
  %0 = load %struct.ipd.custom_type.v64int8.v64int8, %struct.ipd.custom_type.v64int8.v64int8* %a, align 32, !tbaa !2421
  call addrspace(1) void @_ZN8v8cint32C2E17chessllvmInternal7v64int8(%struct.v8cint32* nonnull dereferenceable(64) %custom_type.tmp, i32 0, %struct.ipd.custom_type.v64int8.v64int8 %0) #26
  %1 = load %struct.v8cint32, %struct.v8cint32* %custom_type.tmp, align 32, !tbaa !2421
  ret %struct.v8cint32 %1
}

; Function Attrs: nounwind
define linkonce_odr dso_local void @_ZN8v8cint32C2E17chessllvmInternal7v64int8(%struct.v8cint32* nonnull dereferenceable(64) %this, i32 %0, %struct.ipd.custom_type.v64int8.v64int8 %aw.coerce) unnamed_addr addrspace(1) #21 comdat align 2 !dbg !2798 {
entry:
  %aw = alloca %struct.ipd.custom_type.v64int8.v64int8, align 32
  %this.addr = alloca %struct.v8cint32*, align 4
  %.addr = alloca i32, align 4
  store %struct.ipd.custom_type.v64int8.v64int8 %aw.coerce, %struct.ipd.custom_type.v64int8.v64int8* %aw, align 32
  store %struct.v8cint32* %this, %struct.v8cint32** %this.addr, align 4, !tbaa !839
  call addrspace(1) void @llvm.dbg.declare(metadata %struct.v8cint32** %this.addr, metadata !2820, metadata !DIExpression()), !dbg !2824
  store i32 0, i32* %.addr, align 4, !tbaa !2825
  call addrspace(1) void @llvm.dbg.declare(metadata i32* %.addr, metadata !2822, metadata !DIExpression()), !dbg !2827
  call addrspace(1) void @llvm.dbg.declare(metadata %struct.ipd.custom_type.v64int8.v64int8* %aw, metadata !2823, metadata !DIExpression()), !dbg !2828
  %this1 = load %struct.v8cint32*, %struct.v8cint32** %this.addr, align 4
  %mw = getelementptr inbounds %struct.v8cint32, %struct.v8cint32* %this1, i32 0, i32 0, !dbg !2829
  %1 = load %struct.ipd.custom_type.v64int8.v64int8, %struct.ipd.custom_type.v64int8.v64int8* %aw, align 32, !dbg !2830, !tbaa !2421
  store %struct.ipd.custom_type.v64int8.v64int8 %1, %struct.ipd.custom_type.v64int8.v64int8* %mw, align 32, !dbg !2830, !tbaa !2421
  ret void, !dbg !2831
}

; Function Attrs: alwaysinline nounwind mustprogress
define linkonce_odr dso_local %struct.ipd.custom_type.v64int8.v64int8 @_Z6xset_vi7v16int8(i32 %a0, %struct.ipd.custom_type.v16int8.v16int8 %a1.coerce) addrspace(1) #9 comdat {
entry:
  %a1 = alloca %struct.ipd.custom_type.v16int8.v16int8, align 16
  %a0.addr = alloca i32, align 4
  store %struct.ipd.custom_type.v16int8.v16int8 %a1.coerce, %struct.ipd.custom_type.v16int8.v16int8* %a1, align 16
  store i32 0, i32* %a0.addr, align 4, !tbaa !706
  %0 = load i32, i32* %a0.addr, align 4, !tbaa !706
  %1 = load %struct.ipd.custom_type.v16int8.v16int8, %struct.ipd.custom_type.v16int8.v16int8* %a1, align 16, !tbaa !2139
  %call = call x86_regcallcc addrspace(1) %struct.ipd.custom_type.v64int8.v64int8 @__regcall3__chessintr_v64int8_xset_v___sint_v16int8(i32 signext %0, %struct.ipd.custom_type.v16int8.v16int8 %1) #33
  ret %struct.ipd.custom_type.v64int8.v64int8 %call
}

; Function Attrs: nounwind readnone willreturn
declare dso_local x86_regcallcc %struct.ipd.custom_type.v64int8.v64int8 @__regcall3__chessintr_v64int8_xset_v___sint_v16int8(i32 signext, %struct.ipd.custom_type.v16int8.v16int8) addrspace(1) #12

; Function Attrs: nounwind mustprogress
define linkonce_odr dso_local %struct.v8cint32 @_ZN3aie6detail14vector_storageI6cint32Lj8EE5undefEv() addrspace(1) #16 comdat align 2 !dbg !2832 {
entry:
  %retval = alloca %struct.v8cint32, align 32
  %call = call addrspace(1) %struct.v8cint32 @_Z14undef_v8cint32v() #26, !dbg !2833
  %0 = getelementptr inbounds %struct.v8cint32, %struct.v8cint32* %retval, i32 0, i32 0, !dbg !2833
  %1 = extractvalue %struct.v8cint32 %call, 0, !dbg !2833
  store %struct.ipd.custom_type.v64int8.v64int8 %1, %struct.ipd.custom_type.v64int8.v64int8* %0, align 32, !dbg !2833
  %2 = load %struct.v8cint32, %struct.v8cint32* %retval, align 32, !dbg !2834
  ret %struct.v8cint32 %2, !dbg !2834
}

; Function Attrs: alwaysinline nounwind mustprogress
define linkonce_odr dso_local %struct.v8cint32 @_Z14undef_v8cint32v() addrspace(1) #8 comdat {
entry:
  %retval = alloca %struct.v8cint32, align 32
  %call = call x86_regcallcc addrspace(1) %struct.v8cint32 @__regcall3__chessintr_v8cint32_undef_v8cint32() #33
  %0 = getelementptr inbounds %struct.v8cint32, %struct.v8cint32* %retval, i32 0, i32 0
  %1 = extractvalue %struct.v8cint32 %call, 0
  store %struct.ipd.custom_type.v64int8.v64int8 %1, %struct.ipd.custom_type.v64int8.v64int8* %0, align 32
  %2 = load %struct.v8cint32, %struct.v8cint32* %retval, align 32
  ret %struct.v8cint32 %2
}

; Function Attrs: nounwind readnone willreturn
declare dso_local x86_regcallcc %struct.v8cint32 @__regcall3__chessintr_v8cint32_undef_v8cint32() addrspace(1) #12

; Function Attrs: nounwind readnone willreturn
declare dso_local x86_regcallcc %struct.ipd.custom_type.v32int8.v32int8 @__regcall3__chessintr_v32int8_upd_v_v32int8___sint_v16int8(%struct.ipd.custom_type.v32int8.v32int8, i32 signext, %struct.ipd.custom_type.v16int8.v16int8) addrspace(1) #12

; Function Attrs: alwaysinline nounwind mustprogress
define linkonce_odr dso_local %struct.ipd.custom_type.v16int8.v16int8 @_ZNK3aie6detail6vectorIaLj16EE9to_nativeEv(%"class.aie::detail::vector.12"* nonnull dereferenceable(16) %this) addrspace(1) #8 comdat align 2 !dbg !2835 {
entry:
  call addrspace(1) void @llvm.dbg.value(metadata %"class.aie::detail::vector.12"* %this, metadata !2842, metadata !DIExpression()), !dbg !2843
  %data = getelementptr inbounds %"class.aie::detail::vector.12", %"class.aie::detail::vector.12"* %this, i32 0, i32 0, !dbg !2844
  %0 = load %struct.ipd.custom_type.v16int8.v16int8, %struct.ipd.custom_type.v16int8.v16int8* %data, align 16, !dbg !2844, !tbaa !2139
  ret %struct.ipd.custom_type.v16int8.v16int8 %0, !dbg !2844
}

; Function Attrs: alwaysinline nounwind mustprogress
define linkonce_odr dso_local %struct.ipd.custom_type.v16acc48.v16acc48 @_ZNK3aie6detail5accumILNS0_10AccumClassE0ELj48ELj16EEcv8v16acc48Ev(%"class.aie::detail::accum.8"* nonnull dereferenceable(128) %this) addrspace(1) #8 comdat align 2 !dbg !2846 {
entry:
  call addrspace(1) void @llvm.dbg.value(metadata %"class.aie::detail::accum.8"* %this, metadata !2848, metadata !DIExpression()), !dbg !2850
  %data = getelementptr inbounds %"class.aie::detail::accum.8", %"class.aie::detail::accum.8"* %this, i32 0, i32 0, !dbg !2851
  %0 = load %struct.ipd.custom_type.v16acc48.v16acc48, %struct.ipd.custom_type.v16acc48.v16acc48* %data, align 32, !dbg !2851, !tbaa !2111
  ret %struct.ipd.custom_type.v16acc48.v16acc48 %0, !dbg !2851
}

; Function Attrs: alwaysinline nounwind mustprogress
define linkonce_odr dso_local %struct.ipd.custom_type.v16int8.v16int8 @_Z4bsrs8v16acc48i(%struct.ipd.custom_type.v16acc48.v16acc48 %a.coerce, i32 %shft) addrspace(1) #22 comdat {
entry:
  %a = alloca %struct.ipd.custom_type.v16acc48.v16acc48, align 32
  %shft.addr = alloca i32, align 4
  %of = alloca %struct.ipd.custom_type.uint1_t.uint1_t.3, align 4
  %agg.tmp = alloca %struct.ipd.custom_type.uint1_t.uint1_t.3, align 4
  %custom_type.tmp = alloca %struct.ipd.custom_type.uint1_t.uint1_t.3, align 4
  %agg.tmp1 = alloca %struct.ipd.custom_type.uint1_t.uint1_t.3, align 4
  %agg.tmp3 = alloca %struct.ipd.custom_type.uint1_t.uint1_t.3, align 4
  %agg.tmp5 = alloca %struct.ipd.custom_type.uint3_t.uint3_t, align 4
  store %struct.ipd.custom_type.v16acc48.v16acc48 %a.coerce, %struct.ipd.custom_type.v16acc48.v16acc48* %a, align 32
  store i32 0, i32* %shft.addr, align 4, !tbaa !706
  store %struct.ipd.custom_type.uint1_t.uint1_t.3 undef, %struct.ipd.custom_type.uint1_t.uint1_t.3* %of, align 4
  %0 = bitcast %struct.ipd.custom_type.uint1_t.uint1_t.3* %of to i8*
  call addrspace(1) void @llvm.lifetime.start.p0i8(i64 4, i8* %0) #24
  %1 = load i32, i32* %shft.addr, align 4, !tbaa !706
  %add = add nsw i32 %1, 1
  %call = call zeroext addrspace(1) i8 @_ZN12me_primitive10shft_ilv64Ei(i32 %add) #28
  call addrspace(1) void @_ZN7uint1_tC2Ei(%struct.ipd.custom_type.uint1_t.uint1_t.3* nonnull dereferenceable(1) %custom_type.tmp, i32 1) #26
  %2 = load %struct.ipd.custom_type.uint1_t.uint1_t.3, %struct.ipd.custom_type.uint1_t.uint1_t.3* %custom_type.tmp, align 4, !tbaa !818
  store %struct.ipd.custom_type.uint1_t.uint1_t.3 %2, %struct.ipd.custom_type.uint1_t.uint1_t.3* %agg.tmp, align 4, !tbaa !818
  %call2 = call addrspace(1) %struct.ipd.custom_type.uint1_t.uint1_t.3 @_Z12get_sat_implv() #34
  store %struct.ipd.custom_type.uint1_t.uint1_t.3 %call2, %struct.ipd.custom_type.uint1_t.uint1_t.3* %agg.tmp1, align 4
  %call4 = call addrspace(1) %struct.ipd.custom_type.uint1_t.uint1_t.3 @_Z16get_sym_sat_implv() #34
  store %struct.ipd.custom_type.uint1_t.uint1_t.3 %call4, %struct.ipd.custom_type.uint1_t.uint1_t.3* %agg.tmp3, align 4
  %call6 = call addrspace(1) %struct.ipd.custom_type.uint3_t.uint3_t @_Z12get_rnd_implv() #34
  store %struct.ipd.custom_type.uint3_t.uint3_t %call6, %struct.ipd.custom_type.uint3_t.uint3_t* %agg.tmp5, align 4
  %3 = load %struct.ipd.custom_type.v16acc48.v16acc48, %struct.ipd.custom_type.v16acc48.v16acc48* %a, align 32, !tbaa !2111
  %4 = load %struct.ipd.custom_type.uint1_t.uint1_t.3, %struct.ipd.custom_type.uint1_t.uint1_t.3* %agg.tmp, align 4, !tbaa !818
  %5 = load %struct.ipd.custom_type.uint1_t.uint1_t.3, %struct.ipd.custom_type.uint1_t.uint1_t.3* %agg.tmp1, align 4, !tbaa !818
  %6 = load %struct.ipd.custom_type.uint1_t.uint1_t.3, %struct.ipd.custom_type.uint1_t.uint1_t.3* %agg.tmp3, align 4, !tbaa !818
  %7 = load %struct.ipd.custom_type.uint3_t.uint3_t, %struct.ipd.custom_type.uint3_t.uint3_t* %agg.tmp5, align 4, !tbaa !2852
  %call7 = call addrspace(1) %struct.ipd.custom_type.v16int8.v16int8 @_ZN12me_primitive5dbsrsI7uint1_tEEN13chessEnableIfIXsr17chessIsCompatibleIN15chessRemoveQualIT_E4typeES1_EE5valueE7v16int8E4typeE8v16acc48hS1_S1_S1_7uint3_tRS4_(%struct.ipd.custom_type.v16acc48.v16acc48 %3, i8 zeroext %call, %struct.ipd.custom_type.uint1_t.uint1_t.3 %4, %struct.ipd.custom_type.uint1_t.uint1_t.3 %5, %struct.ipd.custom_type.uint1_t.uint1_t.3 %6, %struct.ipd.custom_type.uint3_t.uint3_t %7, %struct.ipd.custom_type.uint1_t.uint1_t.3* nonnull align 4 dereferenceable(1) %of) #26
  %8 = load %struct.ipd.custom_type.uint1_t.uint1_t.3, %struct.ipd.custom_type.uint1_t.uint1_t.3* %of, align 4, !tbaa !818
  call addrspace(1) void @_Z16set_srs_sat_impl7uint1_t(%struct.ipd.custom_type.uint1_t.uint1_t.3 %8) #34
  %9 = bitcast %struct.ipd.custom_type.uint1_t.uint1_t.3* %of to i8*
  call addrspace(1) void @llvm.lifetime.end.p0i8(i64 4, i8* %9) #24
  ret %struct.ipd.custom_type.v16int8.v16int8 %call7
}

; Function Attrs: alwaysinline nounwind mustprogress
define linkonce_odr dso_local zeroext i8 @_ZN12me_primitive10shft_ilv64Ei(i32 %a0) addrspace(1) #9 comdat {
entry:
  %a0.addr = alloca i32, align 4
  store i32 %a0, i32* %a0.addr, align 4, !tbaa !706
  %0 = load i32, i32* %a0.addr, align 4, !tbaa !706
  %call = call x86_regcallcc zeroext addrspace(1) i8 @__regcall3__chessintr___uchar_shft_ilv64___sint(i32 signext %0) #33
  ret i8 %call
}

; Function Attrs: alwaysinline nounwind mustprogress
define linkonce_odr dso_local %struct.ipd.custom_type.uint1_t.uint1_t.3 @_Z12get_sat_implv() addrspace(1) #23 comdat {
entry:
  %0 = load volatile %struct.ipd.custom_type.uint1_t.uint1_t.3, %struct.ipd.custom_type.uint1_t.uint1_t.3* !register !668, align 4, !tbaa !818, !chess_protect_access !2854
  ret %struct.ipd.custom_type.uint1_t.uint1_t.3 %0
}

; Function Attrs: alwaysinline nounwind mustprogress
define linkonce_odr dso_local %struct.ipd.custom_type.uint1_t.uint1_t.3 @_Z16get_sym_sat_implv() addrspace(1) #23 comdat {
entry:
  %0 = load volatile %struct.ipd.custom_type.uint1_t.uint1_t.3, %struct.ipd.custom_type.uint1_t.uint1_t.3* !register !670, align 4, !tbaa !818, !chess_protect_access !2854
  ret %struct.ipd.custom_type.uint1_t.uint1_t.3 %0
}

; Function Attrs: alwaysinline nounwind mustprogress
define linkonce_odr dso_local %struct.ipd.custom_type.uint3_t.uint3_t @_Z12get_rnd_implv() addrspace(1) #23 comdat {
entry:
  %0 = load volatile %struct.ipd.custom_type.uint3_t.uint3_t, %struct.ipd.custom_type.uint3_t.uint3_t* !register !671, align 4, !tbaa !2852, !chess_protect_access !2854
  ret %struct.ipd.custom_type.uint3_t.uint3_t %0
}

; Function Attrs: alwaysinline nounwind mustprogress
define linkonce_odr dso_local %struct.ipd.custom_type.v16int8.v16int8 @_ZN12me_primitive5dbsrsI7uint1_tEEN13chessEnableIfIXsr17chessIsCompatibleIN15chessRemoveQualIT_E4typeES1_EE5valueE7v16int8E4typeE8v16acc48hS1_S1_S1_7uint3_tRS4_(%struct.ipd.custom_type.v16acc48.v16acc48 %a0.coerce, i8 zeroext %a1, %struct.ipd.custom_type.uint1_t.uint1_t.3 %a2.coerce, %struct.ipd.custom_type.uint1_t.uint1_t.3 %a3.coerce, %struct.ipd.custom_type.uint1_t.uint1_t.3 %a4.coerce, %struct.ipd.custom_type.uint3_t.uint3_t %a5.coerce, %struct.ipd.custom_type.uint1_t.uint1_t.3* nonnull align 4 dereferenceable(1) %a6) addrspace(1) #8 comdat {
entry:
  %a0 = alloca %struct.ipd.custom_type.v16acc48.v16acc48, align 32
  %a2 = alloca %struct.ipd.custom_type.uint1_t.uint1_t.3, align 4
  %a3 = alloca %struct.ipd.custom_type.uint1_t.uint1_t.3, align 4
  %a4 = alloca %struct.ipd.custom_type.uint1_t.uint1_t.3, align 4
  %a5 = alloca %struct.ipd.custom_type.uint3_t.uint3_t, align 4
  %a1.addr = alloca i8, align 1
  %a6.addr = alloca %struct.ipd.custom_type.uint1_t.uint1_t.3*, align 4
  %out = alloca %"struct.me_primitive::chessout_v16int8_dbsrs_v16acc48___uchar_uint1_t_uint1_t_uint1_t_uint3_t_uint1_t", align 1
  store %struct.ipd.custom_type.v16acc48.v16acc48 %a0.coerce, %struct.ipd.custom_type.v16acc48.v16acc48* %a0, align 32
  store %struct.ipd.custom_type.uint1_t.uint1_t.3 %a2.coerce, %struct.ipd.custom_type.uint1_t.uint1_t.3* %a2, align 4
  store %struct.ipd.custom_type.uint1_t.uint1_t.3 %a3.coerce, %struct.ipd.custom_type.uint1_t.uint1_t.3* %a3, align 4
  store %struct.ipd.custom_type.uint1_t.uint1_t.3 %a4.coerce, %struct.ipd.custom_type.uint1_t.uint1_t.3* %a4, align 4
  store %struct.ipd.custom_type.uint3_t.uint3_t %a5.coerce, %struct.ipd.custom_type.uint3_t.uint3_t* %a5, align 4
  store i8 %a1, i8* %a1.addr, align 1, !tbaa !2855
  store %struct.ipd.custom_type.uint1_t.uint1_t.3* %a6, %struct.ipd.custom_type.uint1_t.uint1_t.3** %a6.addr, align 4, !tbaa !839
  store %"struct.me_primitive::chessout_v16int8_dbsrs_v16acc48___uchar_uint1_t_uint1_t_uint1_t_uint3_t_uint1_t" undef, %"struct.me_primitive::chessout_v16int8_dbsrs_v16acc48___uchar_uint1_t_uint1_t_uint1_t_uint3_t_uint1_t"* %out, align 1
  %0 = bitcast %"struct.me_primitive::chessout_v16int8_dbsrs_v16acc48___uchar_uint1_t_uint1_t_uint1_t_uint3_t_uint1_t"* %out to i8*
  call addrspace(1) void @llvm.lifetime.start.p0i8(i64 20, i8* %0) #24
  %1 = load i8, i8* %a1.addr, align 1, !tbaa !2855
  %2 = load %struct.ipd.custom_type.v16acc48.v16acc48, %struct.ipd.custom_type.v16acc48.v16acc48* %a0, align 32, !tbaa !2111
  %3 = load %struct.ipd.custom_type.uint1_t.uint1_t.3, %struct.ipd.custom_type.uint1_t.uint1_t.3* %a2, align 4, !tbaa !818
  %4 = load %struct.ipd.custom_type.uint1_t.uint1_t.3, %struct.ipd.custom_type.uint1_t.uint1_t.3* %a3, align 4, !tbaa !818
  %5 = load %struct.ipd.custom_type.uint1_t.uint1_t.3, %struct.ipd.custom_type.uint1_t.uint1_t.3* %a4, align 4, !tbaa !818
  %6 = load %struct.ipd.custom_type.uint3_t.uint3_t, %struct.ipd.custom_type.uint3_t.uint3_t* %a5, align 4, !tbaa !2852
  %call = call x86_regcallcc addrspace(1) %"struct.me_primitive::chessout_v16int8_dbsrs_v16acc48___uchar_uint1_t_uint1_t_uint1_t_uint3_t_uint1_t" @__regcall3__chessintr_v16int8_dbsrs_v16acc48___uchar_uint1_t_uint1_t_uint1_t_uint3_t_uint1_t(%struct.ipd.custom_type.v16acc48.v16acc48 %2, i8 zeroext %1, %struct.ipd.custom_type.uint1_t.uint1_t.3 %3, %struct.ipd.custom_type.uint1_t.uint1_t.3 %4, %struct.ipd.custom_type.uint1_t.uint1_t.3 %5, %struct.ipd.custom_type.uint3_t.uint3_t %6) #33
  %7 = getelementptr inbounds %"struct.me_primitive::chessout_v16int8_dbsrs_v16acc48___uchar_uint1_t_uint1_t_uint1_t_uint3_t_uint1_t", %"struct.me_primitive::chessout_v16int8_dbsrs_v16acc48___uchar_uint1_t_uint1_t_uint1_t_uint3_t_uint1_t"* %out, i32 0, i32 0
  %8 = extractvalue %"struct.me_primitive::chessout_v16int8_dbsrs_v16acc48___uchar_uint1_t_uint1_t_uint1_t_uint3_t_uint1_t" %call, 0
  store %struct.ipd.custom_type.v16int8.v16int8 %8, %struct.ipd.custom_type.v16int8.v16int8* %7, align 1
  %9 = getelementptr inbounds %"struct.me_primitive::chessout_v16int8_dbsrs_v16acc48___uchar_uint1_t_uint1_t_uint1_t_uint3_t_uint1_t", %"struct.me_primitive::chessout_v16int8_dbsrs_v16acc48___uchar_uint1_t_uint1_t_uint1_t_uint3_t_uint1_t"* %out, i32 0, i32 1
  %10 = extractvalue %"struct.me_primitive::chessout_v16int8_dbsrs_v16acc48___uchar_uint1_t_uint1_t_uint1_t_uint3_t_uint1_t" %call, 1
  store %struct.ipd.custom_type.uint1_t.uint1_t.3 %10, %struct.ipd.custom_type.uint1_t.uint1_t.3* %9, align 1
  %11 = load %struct.ipd.custom_type.uint1_t.uint1_t.3*, %struct.ipd.custom_type.uint1_t.uint1_t.3** %a6.addr, align 4, !tbaa !839
  %o1 = getelementptr inbounds %"struct.me_primitive::chessout_v16int8_dbsrs_v16acc48___uchar_uint1_t_uint1_t_uint1_t_uint3_t_uint1_t", %"struct.me_primitive::chessout_v16int8_dbsrs_v16acc48___uchar_uint1_t_uint1_t_uint1_t_uint3_t_uint1_t"* %out, i32 0, i32 1
  %12 = load %struct.ipd.custom_type.uint1_t.uint1_t.3, %struct.ipd.custom_type.uint1_t.uint1_t.3* %o1, align 1, !tbaa !818
  store %struct.ipd.custom_type.uint1_t.uint1_t.3 %12, %struct.ipd.custom_type.uint1_t.uint1_t.3* %11, align 4, !tbaa !818
  %o0 = getelementptr inbounds %"struct.me_primitive::chessout_v16int8_dbsrs_v16acc48___uchar_uint1_t_uint1_t_uint1_t_uint3_t_uint1_t", %"struct.me_primitive::chessout_v16int8_dbsrs_v16acc48___uchar_uint1_t_uint1_t_uint1_t_uint3_t_uint1_t"* %out, i32 0, i32 0
  %13 = load %struct.ipd.custom_type.v16int8.v16int8, %struct.ipd.custom_type.v16int8.v16int8* %o0, align 1, !tbaa !2139
  %14 = bitcast %"struct.me_primitive::chessout_v16int8_dbsrs_v16acc48___uchar_uint1_t_uint1_t_uint1_t_uint3_t_uint1_t"* %out to i8*
  call addrspace(1) void @llvm.lifetime.end.p0i8(i64 20, i8* %14) #24
  ret %struct.ipd.custom_type.v16int8.v16int8 %13
}

; Function Attrs: alwaysinline nounwind mustprogress
define linkonce_odr dso_local void @_Z16set_srs_sat_impl7uint1_t(%struct.ipd.custom_type.uint1_t.uint1_t.3 %val.coerce) addrspace(1) #23 comdat {
entry:
  %val = alloca %struct.ipd.custom_type.uint1_t.uint1_t.3, align 4
  %status_mcSRSsat = alloca %struct.ipd.custom_type.uint1_t.uint1_t.3, align 4, !ipd_local_reg !672
  store %struct.ipd.custom_type.uint1_t.uint1_t.3 %val.coerce, %struct.ipd.custom_type.uint1_t.uint1_t.3* %val, align 4
  store %struct.ipd.custom_type.uint1_t.uint1_t.3 undef, %struct.ipd.custom_type.uint1_t.uint1_t.3* %status_mcSRSsat, align 4
  %0 = bitcast %struct.ipd.custom_type.uint1_t.uint1_t.3* %status_mcSRSsat to i8*
  call addrspace(1) void @llvm.lifetime.start.p0i8(i64 4, i8* %0) #24
  %1 = load %struct.ipd.custom_type.uint1_t.uint1_t.3, %struct.ipd.custom_type.uint1_t.uint1_t.3* %val, align 4, !tbaa !818
  store %struct.ipd.custom_type.uint1_t.uint1_t.3 %1, %struct.ipd.custom_type.uint1_t.uint1_t.3* %status_mcSRSsat, align 4, !tbaa !818
  call addrspace(1) void @llvm.write_register.s_struct.ipd.custom_type.uint1_t.uint1_t.3s(metadata !672, %struct.ipd.custom_type.uint1_t.uint1_t.3 %1)
  %call = call nonnull align 4 dereferenceable(1) addrspace(1) %struct.ipd.custom_type.uint1_t.uint1_t.3* @_Z20chess_dont_warn_deadI7uint1_tERKT_S3_(%struct.ipd.custom_type.uint1_t.uint1_t.3* nonnull align 4 dereferenceable(1) %status_mcSRSsat) #26
  %2 = bitcast %struct.ipd.custom_type.uint1_t.uint1_t.3* %status_mcSRSsat to i8*
  call addrspace(1) void @llvm.lifetime.end.p0i8(i64 4, i8* %2) #24
  ret void
}

; Function Attrs: nounwind
declare void @llvm.write_register.s_struct.ipd.custom_type.uint1_t.uint1_t.3s(metadata, %struct.ipd.custom_type.uint1_t.uint1_t.3) addrspace(1) #24

; Function Attrs: alwaysinline nounwind mustprogress
define linkonce_odr dso_local nonnull align 4 dereferenceable(1) %struct.ipd.custom_type.uint1_t.uint1_t.3* @_Z20chess_dont_warn_deadI7uint1_tERKT_S3_(%struct.ipd.custom_type.uint1_t.uint1_t.3* nonnull align 4 dereferenceable(1) %a) addrspace(1) #8 comdat {
entry:
  %a.addr = alloca %struct.ipd.custom_type.uint1_t.uint1_t.3*, align 4
  store %struct.ipd.custom_type.uint1_t.uint1_t.3* %a, %struct.ipd.custom_type.uint1_t.uint1_t.3** %a.addr, align 4, !tbaa !839
  %0 = load %struct.ipd.custom_type.uint1_t.uint1_t.3*, %struct.ipd.custom_type.uint1_t.uint1_t.3** %a.addr, align 4, !tbaa !839
  ret %struct.ipd.custom_type.uint1_t.uint1_t.3* %0
}

; Function Attrs: nounwind readnone willreturn
declare dso_local x86_regcallcc %"struct.me_primitive::chessout_v16int8_dbsrs_v16acc48___uchar_uint1_t_uint1_t_uint1_t_uint3_t_uint1_t" @__regcall3__chessintr_v16int8_dbsrs_v16acc48___uchar_uint1_t_uint1_t_uint1_t_uint3_t_uint1_t(%struct.ipd.custom_type.v16acc48.v16acc48, i8 zeroext, %struct.ipd.custom_type.uint1_t.uint1_t.3, %struct.ipd.custom_type.uint1_t.uint1_t.3, %struct.ipd.custom_type.uint1_t.uint1_t.3, %struct.ipd.custom_type.uint3_t.uint3_t) addrspace(1) #12

; Function Attrs: nounwind readnone willreturn
declare dso_local x86_regcallcc zeroext i8 @__regcall3__chessintr___uchar_shft_ilv64___sint(i32 signext) addrspace(1) #12

; Function Attrs: alwaysinline nounwind
define linkonce_odr dso_local void @_ZN3aie6detail5accumILNS0_10AccumClassE0ELj48ELj16EEC2Ev(%"class.aie::detail::accum.8"* nonnull dereferenceable(128) %this) unnamed_addr addrspace(1) #10 comdat align 2 !dbg !2856 {
entry:
  call addrspace(1) void @llvm.dbg.value(metadata %"class.aie::detail::accum.8"* %this, metadata !2858, metadata !DIExpression()), !dbg !2860
  %data = getelementptr inbounds %"class.aie::detail::accum.8", %"class.aie::detail::accum.8"* %this, i32 0, i32 0, !dbg !2861
  %call = call addrspace(1) %struct.ipd.custom_type.v16acc48.v16acc48 @_ZN3aie6detail13accum_storageILNS0_10AccumClassE0ELj48ELj16EE5undefEv() #26, !dbg !2862
  store %struct.ipd.custom_type.v16acc48.v16acc48 %call, %struct.ipd.custom_type.v16acc48.v16acc48* %data, align 32, !dbg !2862
  ret void, !dbg !2863
}

; Function Attrs: nounwind mustprogress
define linkonce_odr hidden nonnull align 32 dereferenceable(96) %struct.ipd.custom_type.v16acc48.v16acc48* @_ZNKSt3__25arrayI8v16acc48Lj2EEixEj(%"struct.std::__2::array"* nonnull dereferenceable(256) %this, i32 %__n) addrspace(1) #16 comdat align 2 !dbg !2864 {
entry:
  call addrspace(1) void @llvm.dbg.value(metadata %"struct.std::__2::array"* %this, metadata !2866, metadata !DIExpression()), !dbg !2869
  call addrspace(1) void @llvm.dbg.value(metadata i32 %__n, metadata !2868, metadata !DIExpression()), !dbg !2869
  %__elems_ = getelementptr inbounds %"struct.std::__2::array", %"struct.std::__2::array"* %this, i32 0, i32 0, !dbg !2870
  %arrayidx = getelementptr inbounds [2 x %struct.ipd.custom_type.v16acc48.v16acc48], [2 x %struct.ipd.custom_type.v16acc48.v16acc48]* %__elems_, i32 0, i32 %__n, !dbg !2870
  ret %struct.ipd.custom_type.v16acc48.v16acc48* %arrayidx, !dbg !2871
}

; Function Attrs: nounwind mustprogress
define linkonce_odr dso_local %struct.ipd.custom_type.v16acc48.v16acc48 @_ZN3aie6detail13accum_storageILNS0_10AccumClassE0ELj48ELj16EE5undefEv() addrspace(1) #16 comdat align 2 !dbg !2872 {
entry:
  %call = call addrspace(1) %struct.ipd.custom_type.v16acc48.v16acc48 @_Z14undef_v16acc48v() #26, !dbg !2873
  ret %struct.ipd.custom_type.v16acc48.v16acc48 %call, !dbg !2873
}

; Function Attrs: alwaysinline nounwind mustprogress
define linkonce_odr dso_local %struct.ipd.custom_type.v16acc48.v16acc48 @_Z14undef_v16acc48v() addrspace(1) #8 comdat {
entry:
  %call = call x86_regcallcc addrspace(1) %struct.ipd.custom_type.v16acc48.v16acc48 @__regcall3__chessintr_v16acc48_undef_v16acc48() #33
  ret %struct.ipd.custom_type.v16acc48.v16acc48 %call
}

; Function Attrs: nounwind readnone willreturn
declare dso_local x86_regcallcc %struct.ipd.custom_type.v16acc48.v16acc48 @__regcall3__chessintr_v16acc48_undef_v16acc48() addrspace(1) #12

; Function Attrs: alwaysinline nounwind mustprogress
define linkonce_odr dso_local void @_ZN3aie6op_addINS_6detail5accumILNS1_10AccumClassE0ELj32ELj32EEEEENS_8unary_opIT_LNS_9OperationE1EEERKS6_(%"struct.aie::unary_op"* noalias sret(%"struct.aie::unary_op") align 32 %agg.result, %"class.aie::detail::accum"* nonnull align 32 dereferenceable(256) %acc) addrspace(1) #8 comdat !dbg !2874 {
entry:
  call addrspace(1) void @llvm.dbg.value(metadata %"class.aie::detail::accum"* %acc, metadata !2908, metadata !DIExpression()), !dbg !2910
  %0 = load %"class.aie::detail::accum", %"class.aie::detail::accum"* %acc, align 32, !dbg !2911, !tbaa !1319
  call addrspace(1) void @_ZN3aie8unary_opINS_6detail5accumILNS1_10AccumClassE0ELj32ELj32EEELNS_9OperationE1EECI2NS_15unary_op_commonIS4_LS5_1EEEES4_(%"struct.aie::unary_op"* nonnull dereferenceable(256) %agg.result, %"class.aie::detail::accum" %0) #26, !dbg !2911
  ret void, !dbg !2912
}

; Function Attrs: alwaysinline nounwind mustprogress
define linkonce_odr dso_local void @_ZN3aie3macINS_8unary_opINS_6detail5accumILNS2_10AccumClassE0ELj32ELj32EEELNS_9OperationE1EEENS2_6vectorIaLj32EEEaEENS_17operand_base_typeINS2_5utils10remove_allIT_E4typeEE4typeERKSD_RKT0_T1_(%"class.aie::detail::accum"* noalias sret(%"class.aie::detail::accum") align 32 %agg.result, %"struct.aie::unary_op"* nonnull align 32 dereferenceable(256) %acc, %"class.aie::detail::vector"* nonnull align 32 dereferenceable(32) %v, i8 signext %a) addrspace(1) #8 comdat !dbg !2913 {
entry:
  %ref.tmp = alloca %"struct.aie::unary_op.0", align 32
  call addrspace(1) void @llvm.dbg.value(metadata %"struct.aie::unary_op"* %acc, metadata !2927, metadata !DIExpression()), !dbg !2932
  call addrspace(1) void @llvm.dbg.value(metadata %"class.aie::detail::vector"* %v, metadata !2928, metadata !DIExpression()), !dbg !2932
  call addrspace(1) void @llvm.dbg.value(metadata i8 %a, metadata !2929, metadata !DIExpression()), !dbg !2932
  %0 = bitcast %"struct.aie::unary_op.0"* %ref.tmp to i8*, !dbg !2933
  call addrspace(1) void @llvm.lifetime.start.p0i8(i64 32, i8* %0) #24, !dbg !2933
  %call = call addrspace(1) %"struct.aie::unary_op.0" @_ZN3aie7op_noneINS_6detail6vectorIaLj32EEEEENS_8unary_opIT_LNS_9OperationE0EEERKS5_(%"class.aie::detail::vector"* nonnull align 32 dereferenceable(32) %v) #26, !dbg !2933
  %1 = getelementptr inbounds %"struct.aie::unary_op.0", %"struct.aie::unary_op.0"* %ref.tmp, i32 0, i32 0, !dbg !2933
  %2 = extractvalue %"struct.aie::unary_op.0" %call, 0, !dbg !2933
  store %"struct.aie::unary_op_common.1" %2, %"struct.aie::unary_op_common.1"* %1, align 32, !dbg !2933
  call addrspace(1) void @_ZN3aie3macINS_8unary_opINS_6detail5accumILNS2_10AccumClassE0ELj32ELj32EEELNS_9OperationE1EEENS1_INS2_6vectorIaLj32EEELS6_0EEEaEENS_17operand_base_typeINS2_5utils10remove_allIT_E4typeEE4typeERKSE_RKT0_T1_(%"class.aie::detail::accum"* sret(%"class.aie::detail::accum") align 32 %agg.result, %"struct.aie::unary_op"* nonnull align 32 dereferenceable(256) %acc, %"struct.aie::unary_op.0"* nonnull align 32 dereferenceable(32) %ref.tmp, i8 signext %a) #26, !dbg !2938
  %3 = bitcast %"struct.aie::unary_op.0"* %ref.tmp to i8*, !dbg !2939
  call addrspace(1) void @llvm.lifetime.end.p0i8(i64 32, i8* %3) #24, !dbg !2939
  ret void, !dbg !2939
}

; Function Attrs: alwaysinline nounwind mustprogress
define linkonce_odr dso_local %"struct.aie::unary_op.0" @_ZN3aie7op_noneINS_6detail6vectorIaLj32EEEEENS_8unary_opIT_LNS_9OperationE0EEERKS5_(%"class.aie::detail::vector"* nonnull align 32 dereferenceable(32) %e) addrspace(1) #8 comdat !dbg !2940 {
entry:
  %retval = alloca %"struct.aie::unary_op.0", align 32
  call addrspace(1) void @llvm.dbg.value(metadata %"class.aie::detail::vector"* %e, metadata !2978, metadata !DIExpression()), !dbg !2979
  %0 = load %"class.aie::detail::vector", %"class.aie::detail::vector"* %e, align 32, !dbg !2980, !tbaa !1310
  call addrspace(1) void @_ZN3aie8unary_opINS_6detail6vectorIaLj32EEELNS_9OperationE0EECI2NS_15unary_op_commonIS3_LS4_0EEEES3_(%"struct.aie::unary_op.0"* nonnull dereferenceable(32) %retval, %"class.aie::detail::vector" %0) #26, !dbg !2980
  %1 = load %"struct.aie::unary_op.0", %"struct.aie::unary_op.0"* %retval, align 32, !dbg !2981
  ret %"struct.aie::unary_op.0" %1, !dbg !2981
}

; Function Attrs: alwaysinline nounwind mustprogress
define linkonce_odr dso_local void @_ZN3aie3macINS_8unary_opINS_6detail5accumILNS2_10AccumClassE0ELj32ELj32EEELNS_9OperationE1EEENS1_INS2_6vectorIaLj32EEELS6_0EEEaEENS_17operand_base_typeINS2_5utils10remove_allIT_E4typeEE4typeERKSE_RKT0_T1_(%"class.aie::detail::accum"* noalias sret(%"class.aie::detail::accum") align 32 %agg.result, %"struct.aie::unary_op"* nonnull align 32 dereferenceable(256) %acc, %"struct.aie::unary_op.0"* nonnull align 32 dereferenceable(32) %v, i8 signext %a) addrspace(1) #8 comdat !dbg !2982 {
entry:
  %a.addr = alloca i8, align 1
  %agg.tmp = alloca %"struct.aie::unary_op.2", align 1
  call addrspace(1) void @llvm.dbg.value(metadata %"struct.aie::unary_op"* %acc, metadata !2987, metadata !DIExpression()), !dbg !2992
  call addrspace(1) void @llvm.dbg.value(metadata %"struct.aie::unary_op.0"* %v, metadata !2988, metadata !DIExpression()), !dbg !2992
  store i8 %a, i8* %a.addr, align 1, !tbaa !2855
  call addrspace(1) void @llvm.dbg.declare(metadata i8* %a.addr, metadata !2989, metadata !DIExpression()), !dbg !2993
  %call = call addrspace(1) %"struct.aie::unary_op.2" @_ZN3aie7op_noneIaEENS_8unary_opIT_LNS_9OperationE0EEERKS2_(i8* nonnull align 1 dereferenceable(1) %a.addr) #26, !dbg !2994
  %0 = getelementptr inbounds %"struct.aie::unary_op.2", %"struct.aie::unary_op.2"* %agg.tmp, i32 0, i32 0, !dbg !2994
  %1 = extractvalue %"struct.aie::unary_op.2" %call, 0, !dbg !2994
  store %"struct.aie::unary_op_common.3" %1, %"struct.aie::unary_op_common.3"* %0, align 1, !dbg !2994
  %2 = load %"struct.aie::unary_op.2", %"struct.aie::unary_op.2"* %agg.tmp, align 1, !dbg !3000, !tbaa !3001
  call addrspace(1) void @_ZN3aie3macINS_8unary_opINS_6detail5accumILNS2_10AccumClassE0ELj32ELj32EEELNS_9OperationE1EEENS1_INS2_6vectorIaLj32EEELS6_0EEENS1_IaLS6_0EEEEENS_17operand_base_typeINS2_5utils10remove_allIT_E4typeEE4typeERKSF_RKT0_T1_(%"class.aie::detail::accum"* sret(%"class.aie::detail::accum") align 32 %agg.result, %"struct.aie::unary_op"* nonnull align 32 dereferenceable(256) %acc, %"struct.aie::unary_op.0"* nonnull align 32 dereferenceable(32) %v, %"struct.aie::unary_op.2" %2) #26, !dbg !3000
  ret void, !dbg !3004
}

; Function Attrs: alwaysinline nounwind mustprogress
define linkonce_odr dso_local %"struct.aie::unary_op.2" @_ZN3aie7op_noneIaEENS_8unary_opIT_LNS_9OperationE0EEERKS2_(i8* nonnull align 1 dereferenceable(1) %e) addrspace(1) #8 comdat !dbg !3005 {
entry:
  %retval = alloca %"struct.aie::unary_op.2", align 1
  call addrspace(1) void @llvm.dbg.value(metadata i8* %e, metadata !3042, metadata !DIExpression()), !dbg !3043
  %0 = load i8, i8* %e, align 1, !dbg !3044, !tbaa !2855
  call addrspace(1) void @_ZN3aie8unary_opIaLNS_9OperationE0EECI2NS_15unary_op_commonIaLS1_0EEEEa(%"struct.aie::unary_op.2"* nonnull dereferenceable(1) %retval, i8 signext %0) #26, !dbg !3045
  %1 = load %"struct.aie::unary_op.2", %"struct.aie::unary_op.2"* %retval, align 1, !dbg !3046
  ret %"struct.aie::unary_op.2" %1, !dbg !3046
}

; Function Attrs: alwaysinline nounwind mustprogress
define linkonce_odr dso_local void @_ZN3aie3macINS_8unary_opINS_6detail5accumILNS2_10AccumClassE0ELj32ELj32EEELNS_9OperationE1EEENS1_INS2_6vectorIaLj32EEELS6_0EEENS1_IaLS6_0EEEEENS_17operand_base_typeINS2_5utils10remove_allIT_E4typeEE4typeERKSF_RKT0_T1_(%"class.aie::detail::accum"* noalias sret(%"class.aie::detail::accum") align 32 %agg.result, %"struct.aie::unary_op"* nonnull align 32 dereferenceable(256) %acc, %"struct.aie::unary_op.0"* nonnull align 32 dereferenceable(32) %v, %"struct.aie::unary_op.2" %a.coerce) addrspace(1) #8 comdat !dbg !3047 {
entry:
  %a = alloca %"struct.aie::unary_op.2", align 1
  %custom_type.tmp = alloca %"class.aie::detail::accum", align 32
  %ref.tmp = alloca %"class.aie::detail::accum", align 32
  %ref.tmp1 = alloca %"class.aie::detail::vector", align 32
  %ref.tmp3 = alloca i8, align 1
  %ref.tmp7 = alloca %"class.aie::detail::accum", align 32
  store %"struct.aie::unary_op.2" %a.coerce, %"struct.aie::unary_op.2"* %a, align 1
  call addrspace(1) void @llvm.dbg.value(metadata %"struct.aie::unary_op"* %acc, metadata !3051, metadata !DIExpression()), !dbg !3067
  call addrspace(1) void @llvm.dbg.value(metadata %"struct.aie::unary_op.0"* %v, metadata !3052, metadata !DIExpression()), !dbg !3067
  call addrspace(1) void @llvm.dbg.declare(metadata %"struct.aie::unary_op.2"* %a, metadata !3053, metadata !DIExpression()), !dbg !3068
  call addrspace(1) void @llvm.dbg.value(metadata i32 undef, metadata !3054, metadata !DIExpression()), !dbg !3069
  call addrspace(1) void @llvm.dbg.value(metadata i32 0, metadata !3054, metadata !DIExpression()), !dbg !3069
  call addrspace(1) void @llvm.dbg.value(metadata i32 undef, metadata !3064, metadata !DIExpression()), !dbg !3069
  call addrspace(1) void @llvm.dbg.value(metadata i32 0, metadata !3064, metadata !DIExpression()), !dbg !3069
  %0 = bitcast %"class.aie::detail::accum"* %ref.tmp to i8*, !dbg !3070
  call addrspace(1) void @llvm.lifetime.start.p0i8(i64 256, i8* %0) #24, !dbg !3070
  %1 = bitcast %"class.aie::detail::vector"* %ref.tmp1 to i8*, !dbg !3072
  call addrspace(1) void @llvm.lifetime.start.p0i8(i64 32, i8* %1) #24, !dbg !3072
  %2 = bitcast %"struct.aie::unary_op.0"* %v to %"struct.aie::unary_op_common.1"*, !dbg !3072
  %call = call addrspace(1) %"class.aie::detail::vector" @_ZNK3aie15unary_op_commonINS_6detail6vectorIaLj32EEELNS_9OperationE0EE7parent1Ev(%"struct.aie::unary_op_common.1"* nonnull dereferenceable(32) %2) #26, !dbg !3073
  %3 = getelementptr inbounds %"class.aie::detail::vector", %"class.aie::detail::vector"* %ref.tmp1, i32 0, i32 0, !dbg !3073
  %4 = extractvalue %"class.aie::detail::vector" %call, 0, !dbg !3073
  store %struct.ipd.custom_type.v32int8.v32int8 %4, %struct.ipd.custom_type.v32int8.v32int8* %3, align 32, !dbg !3073
  %5 = load %"struct.aie::unary_op.0", %"struct.aie::unary_op.0"* %v, align 32, !dbg !3074, !tbaa !3075
  %call2 = call zeroext addrspace(1) i1 @_ZN3aie6detail12get_mul_signINS_8unary_opINS0_6vectorIaLj32EEELNS_9OperationE0EEEEEbT_(%"struct.aie::unary_op.0" %5) #26, !dbg !3078
  call addrspace(1) void @llvm.lifetime.start.p0i8(i64 1, i8* %ref.tmp3) #24, !dbg !3079
  %6 = bitcast %"struct.aie::unary_op.2"* %a to %"struct.aie::unary_op_common.3"*, !dbg !3079
  %call4 = call signext addrspace(1) i8 @_ZNK3aie15unary_op_commonIaLNS_9OperationE0EE7parent1Ev(%"struct.aie::unary_op_common.3"* nonnull dereferenceable(1) %6) #26, !dbg !3080
  store i8 %call4, i8* %ref.tmp3, align 1, !dbg !3079, !tbaa !2855
  %7 = load %"struct.aie::unary_op.2", %"struct.aie::unary_op.2"* %a, align 1, !dbg !3081, !tbaa !3001
  %call6 = call zeroext addrspace(1) i1 @_ZN3aie6detail12get_mul_signINS_8unary_opIaLNS_9OperationE0EEEEEbT_(%"struct.aie::unary_op.2" %7) #26, !dbg !3082
  %8 = bitcast %"class.aie::detail::accum"* %ref.tmp7 to i8*, !dbg !3083
  call addrspace(1) void @llvm.lifetime.start.p0i8(i64 256, i8* %8) #24, !dbg !3083
  %9 = bitcast %"struct.aie::unary_op"* %acc to %"struct.aie::unary_op_common"*, !dbg !3083
  call addrspace(1) void @_ZNK3aie15unary_op_commonINS_6detail5accumILNS1_10AccumClassE0ELj32ELj32EEELNS_9OperationE1EE7parent1Ev(%"class.aie::detail::accum"* sret(%"class.aie::detail::accum") align 32 %ref.tmp7, %"struct.aie::unary_op_common"* nonnull dereferenceable(256) %9) #26, !dbg !3084
  call addrspace(1) void @_ZN3aie6detail8mul_bitsILNS0_10MulMacroOpE2ELj48ELj8EaLj8EaE3runILj32EJNS0_5accumILNS0_10AccumClassE0ELj32ELj32EEEEEEDaRKNS0_6vectorIaXT_EEEbRKabDpRKT0_(%"class.aie::detail::accum"* sret(%"class.aie::detail::accum") align 32 %ref.tmp, %"class.aie::detail::vector"* nonnull align 32 dereferenceable(32) %ref.tmp1, i1 zeroext %call2, i8* nonnull align 1 dereferenceable(1) %ref.tmp3, i1 zeroext %call6, %"class.aie::detail::accum"* nonnull align 32 dereferenceable(256) %ref.tmp7) #26, !dbg !3070
  call addrspace(1) void @_ZN3aie6detail5accumILNS0_10AccumClassE0ELj32ELj32EEC2ILj48EEERKNS1_ILS2_0EXT_ELj32EEE(%"class.aie::detail::accum"* nonnull dereferenceable(256) %custom_type.tmp, %"class.aie::detail::accum"* nonnull align 32 dereferenceable(256) %ref.tmp) #26, !dbg !3070
  %10 = load %"class.aie::detail::accum", %"class.aie::detail::accum"* %custom_type.tmp, align 32, !dbg !3070, !tbaa !1319
  store %"class.aie::detail::accum" %10, %"class.aie::detail::accum"* %agg.result, align 32, !dbg !3070, !tbaa !1319
  %11 = bitcast %"class.aie::detail::accum"* %ref.tmp7 to i8*, !dbg !3085
  call addrspace(1) void @llvm.lifetime.end.p0i8(i64 256, i8* %11) #24, !dbg !3085
  call addrspace(1) void @llvm.lifetime.end.p0i8(i64 1, i8* %ref.tmp3) #24, !dbg !3085
  %12 = bitcast %"class.aie::detail::vector"* %ref.tmp1 to i8*, !dbg !3085
  call addrspace(1) void @llvm.lifetime.end.p0i8(i64 32, i8* %12) #24, !dbg !3085
  %13 = bitcast %"class.aie::detail::accum"* %ref.tmp to i8*, !dbg !3085
  call addrspace(1) void @llvm.lifetime.end.p0i8(i64 256, i8* %13) #24, !dbg !3085
  ret void, !dbg !3086
}

; Function Attrs: alwaysinline nounwind mustprogress
define linkonce_odr dso_local %"class.aie::detail::vector" @_ZNK3aie15unary_op_commonINS_6detail6vectorIaLj32EEELNS_9OperationE0EE7parent1Ev(%"struct.aie::unary_op_common.1"* nonnull dereferenceable(32) %this) addrspace(1) #8 comdat align 2 !dbg !3087 {
entry:
  call addrspace(1) void @llvm.dbg.value(metadata %"struct.aie::unary_op_common.1"* %this, metadata !3096, metadata !DIExpression()), !dbg !3098
  %parent_ = getelementptr inbounds %"struct.aie::unary_op_common.1", %"struct.aie::unary_op_common.1"* %this, i32 0, i32 0, !dbg !3099
  %0 = load %"class.aie::detail::vector", %"class.aie::detail::vector"* %parent_, align 32, !dbg !3099, !tbaa !1310
  ret %"class.aie::detail::vector" %0, !dbg !3099
}

; Function Attrs: alwaysinline nounwind mustprogress
define linkonce_odr dso_local zeroext i1 @_ZN3aie6detail12get_mul_signINS_8unary_opINS0_6vectorIaLj32EEELNS_9OperationE0EEEEEbT_(%"struct.aie::unary_op.0" %v.coerce) addrspace(1) #8 comdat !dbg !3101 {
entry:
  call addrspace(1) void @llvm.dbg.value(metadata %"struct.aie::unary_op.0" %v.coerce, metadata !3105, metadata !DIExpression()), !dbg !3108
  ret i1 true, !dbg !3109
}

; Function Attrs: alwaysinline nounwind mustprogress
define linkonce_odr dso_local signext i8 @_ZNK3aie15unary_op_commonIaLNS_9OperationE0EE7parent1Ev(%"struct.aie::unary_op_common.3"* nonnull dereferenceable(1) %this) addrspace(1) #8 comdat align 2 !dbg !3111 {
entry:
  call addrspace(1) void @llvm.dbg.value(metadata %"struct.aie::unary_op_common.3"* %this, metadata !3120, metadata !DIExpression()), !dbg !3122
  %parent_ = getelementptr inbounds %"struct.aie::unary_op_common.3", %"struct.aie::unary_op_common.3"* %this, i32 0, i32 0, !dbg !3123
  %0 = load i8, i8* %parent_, align 1, !dbg !3123, !tbaa !3125
  ret i8 %0, !dbg !3126
}

; Function Attrs: alwaysinline nounwind mustprogress
define linkonce_odr dso_local zeroext i1 @_ZN3aie6detail12get_mul_signINS_8unary_opIaLNS_9OperationE0EEEEEbT_(%"struct.aie::unary_op.2" %v.coerce) addrspace(1) #8 comdat !dbg !3127 {
entry:
  call addrspace(1) void @llvm.dbg.value(metadata %"struct.aie::unary_op.2" %v.coerce, metadata !3131, metadata !DIExpression()), !dbg !3134
  ret i1 true, !dbg !3135
}

; Function Attrs: alwaysinline nounwind mustprogress
define linkonce_odr dso_local void @_ZNK3aie15unary_op_commonINS_6detail5accumILNS1_10AccumClassE0ELj32ELj32EEELNS_9OperationE1EE7parent1Ev(%"class.aie::detail::accum"* noalias sret(%"class.aie::detail::accum") align 32 %agg.result, %"struct.aie::unary_op_common"* nonnull dereferenceable(256) %this) addrspace(1) #8 comdat align 2 !dbg !3137 {
entry:
  call addrspace(1) void @llvm.dbg.value(metadata %"struct.aie::unary_op_common"* %this, metadata !3146, metadata !DIExpression()), !dbg !3148
  %parent_ = getelementptr inbounds %"struct.aie::unary_op_common", %"struct.aie::unary_op_common"* %this, i32 0, i32 0, !dbg !3149
  %0 = load %"class.aie::detail::accum", %"class.aie::detail::accum"* %parent_, align 32, !dbg !3149, !tbaa !1319
  store %"class.aie::detail::accum" %0, %"class.aie::detail::accum"* %agg.result, align 32, !dbg !3149, !tbaa !1319
  ret void, !dbg !3151
}

; Function Attrs: alwaysinline nounwind mustprogress
define linkonce_odr dso_local void @_ZN3aie6detail8mul_bitsILNS0_10MulMacroOpE2ELj48ELj8EaLj8EaE3runILj32EJNS0_5accumILNS0_10AccumClassE0ELj32ELj32EEEEEEDaRKNS0_6vectorIaXT_EEEbRKabDpRKT0_(%"class.aie::detail::accum"* noalias sret(%"class.aie::detail::accum") align 32 %agg.result, %"class.aie::detail::vector"* nonnull align 32 dereferenceable(32) %v, i1 zeroext %v_sign, i8* nonnull align 1 dereferenceable(1) %a, i1 zeroext %a_sign, %"class.aie::detail::accum"* nonnull align 32 dereferenceable(256) %acc) addrspace(1) #8 comdat align 2 !dbg !3152 {
entry:
  call addrspace(1) void @llvm.dbg.value(metadata %"class.aie::detail::vector"* %v, metadata !3205, metadata !DIExpression()), !dbg !3210
  %frombool = zext i1 %v_sign to i8
  call addrspace(1) void @llvm.dbg.value(metadata i8 %frombool, metadata !3206, metadata !DIExpression()), !dbg !3210
  call addrspace(1) void @llvm.dbg.value(metadata i8* %a, metadata !3207, metadata !DIExpression()), !dbg !3210
  %frombool1 = zext i1 %a_sign to i8
  call addrspace(1) void @llvm.dbg.value(metadata i8 %frombool1, metadata !3208, metadata !DIExpression()), !dbg !3210
  call addrspace(1) void @llvm.dbg.value(metadata %"class.aie::detail::accum"* %acc, metadata !3209, metadata !DIExpression()), !dbg !3210
  %tobool = trunc i8 %frombool to i1, !dbg !3211
  %0 = load i8, i8* %a, align 1, !dbg !3212, !tbaa !2855
  %tobool2 = trunc i8 %frombool1 to i1, !dbg !3213
  call addrspace(1) void @_ZN3aie6detail13mul_bits_implILNS0_10MulMacroOpE2ELj48ELj8EaLj8EaE3runILj32EJNS0_5accumILNS0_10AccumClassE0ELj32ELj32EEEEEENS5_ILS6_0ELj48EXT_EEERKNS0_6vectorIaXT_EEEbabDpRKT0_(%"class.aie::detail::accum"* sret(%"class.aie::detail::accum") align 32 %agg.result, %"class.aie::detail::vector"* nonnull align 32 dereferenceable(32) %v, i1 zeroext %tobool, i8 signext %0, i1 zeroext %tobool2, %"class.aie::detail::accum"* nonnull align 32 dereferenceable(256) %acc) #26, !dbg !3214
  ret void, !dbg !3215
}

; Function Attrs: alwaysinline nounwind
define linkonce_odr dso_local void @_ZN3aie6detail5accumILNS0_10AccumClassE0ELj32ELj32EEC2ILj48EEERKNS1_ILS2_0EXT_ELj32EEE(%"class.aie::detail::accum"* nonnull dereferenceable(256) %this, %"class.aie::detail::accum"* nonnull align 32 dereferenceable(256) %acc) unnamed_addr addrspace(1) #10 comdat align 2 !dbg !3216 {
entry:
  call addrspace(1) void @llvm.dbg.value(metadata %"class.aie::detail::accum"* %this, metadata !3224, metadata !DIExpression()), !dbg !3226
  call addrspace(1) void @llvm.dbg.value(metadata %"class.aie::detail::accum"* %acc, metadata !3225, metadata !DIExpression()), !dbg !3226
  %data = getelementptr inbounds %"class.aie::detail::accum", %"class.aie::detail::accum"* %this, i32 0, i32 0, !dbg !3227
  %data2 = getelementptr inbounds %"class.aie::detail::accum", %"class.aie::detail::accum"* %acc, i32 0, i32 0, !dbg !3228
  %0 = bitcast %"struct.std::__2::array"* %data to i8*, !dbg !3227
  %1 = bitcast %"struct.std::__2::array"* %data2 to i8*, !dbg !3227
  call addrspace(1) void @llvm.memcpy.p0i8.p0i8.i32(i8* align 32 %0, i8* align 32 %1, i32 256, i1 false), !dbg !3227, !tbaa !747, !tbaa.struct !3229
  ret void, !dbg !3231
}

; Function Attrs: alwaysinline nounwind mustprogress
define linkonce_odr dso_local void @_ZN3aie6detail13mul_bits_implILNS0_10MulMacroOpE2ELj48ELj8EaLj8EaE3runILj32EJNS0_5accumILNS0_10AccumClassE0ELj32ELj32EEEEEENS5_ILS6_0ELj48EXT_EEERKNS0_6vectorIaXT_EEEbabDpRKT0_(%"class.aie::detail::accum"* noalias sret(%"class.aie::detail::accum") align 32 %agg.result, %"class.aie::detail::vector"* nonnull align 32 dereferenceable(32) %v, i1 zeroext %v_sign, i8 signext %a, i1 zeroext %a_sign, %"class.aie::detail::accum"* nonnull align 32 dereferenceable(256) %acc) addrspace(1) #8 comdat align 2 !dbg !3232 {
entry:
  %ref.tmp = alloca %"class.aie::detail::vector.5", align 32
  %ref.tmp2 = alloca i16, align 2
  call addrspace(1) void @llvm.dbg.value(metadata %"class.aie::detail::vector"* %v, metadata !3243, metadata !DIExpression()), !dbg !3248
  %frombool = zext i1 %v_sign to i8
  call addrspace(1) void @llvm.dbg.value(metadata i8 %frombool, metadata !3244, metadata !DIExpression()), !dbg !3248
  call addrspace(1) void @llvm.dbg.value(metadata i8 %a, metadata !3245, metadata !DIExpression()), !dbg !3248
  %frombool1 = zext i1 %a_sign to i8
  call addrspace(1) void @llvm.dbg.value(metadata i8 %frombool1, metadata !3246, metadata !DIExpression()), !dbg !3248
  call addrspace(1) void @llvm.dbg.value(metadata %"class.aie::detail::accum"* %acc, metadata !3247, metadata !DIExpression()), !dbg !3248
  %0 = bitcast %"class.aie::detail::vector.5"* %ref.tmp to i8*, !dbg !3249
  call addrspace(1) void @llvm.lifetime.start.p0i8(i64 64, i8* %0) #24, !dbg !3249
  %call = call addrspace(1) %"class.aie::detail::vector.5" @_ZNK3aie6detail6vectorIaLj32EE6unpackEv(%"class.aie::detail::vector"* nonnull dereferenceable(32) %v) #26, !dbg !3252
  %1 = getelementptr inbounds %"class.aie::detail::vector.5", %"class.aie::detail::vector.5"* %ref.tmp, i32 0, i32 0, !dbg !3252
  %2 = extractvalue %"class.aie::detail::vector.5" %call, 0, !dbg !3252
  store %struct.v32int16 %2, %struct.v32int16* %1, align 32, !dbg !3252
  %tobool = trunc i8 %frombool to i1, !dbg !3253
  %3 = bitcast i16* %ref.tmp2 to i8*, !dbg !3254
  call addrspace(1) void @llvm.lifetime.start.p0i8(i64 2, i8* %3) #24, !dbg !3254
  %conv = sext i8 %a to i16, !dbg !3255
  store i16 %conv, i16* %ref.tmp2, align 2, !dbg !3254, !tbaa !3256
  %tobool3 = trunc i8 %frombool1 to i1, !dbg !3258
  call addrspace(1) void @_ZN3aie6detail8mul_bitsILNS0_10MulMacroOpE2ELj48ELj16EsLj16EsE3runILj32EJNS0_5accumILNS0_10AccumClassE0ELj32ELj32EEEEEEDaRKNS0_6vectorIsXT_EEEbRKsbDpRKT0_(%"class.aie::detail::accum"* sret(%"class.aie::detail::accum") align 32 %agg.result, %"class.aie::detail::vector.5"* nonnull align 32 dereferenceable(64) %ref.tmp, i1 zeroext %tobool, i16* nonnull align 2 dereferenceable(2) %ref.tmp2, i1 zeroext %tobool3, %"class.aie::detail::accum"* nonnull align 32 dereferenceable(256) %acc) #26, !dbg !3259
  %4 = bitcast i16* %ref.tmp2 to i8*, !dbg !3260
  call addrspace(1) void @llvm.lifetime.end.p0i8(i64 2, i8* %4) #24, !dbg !3260
  %5 = bitcast %"class.aie::detail::vector.5"* %ref.tmp to i8*, !dbg !3260
  call addrspace(1) void @llvm.lifetime.end.p0i8(i64 64, i8* %5) #24, !dbg !3260
  ret void, !dbg !3260
}

; Function Attrs: alwaysinline nounwind mustprogress
define linkonce_odr dso_local %"class.aie::detail::vector.5" @_ZNK3aie6detail6vectorIaLj32EE6unpackEv(%"class.aie::detail::vector"* nonnull dereferenceable(32) %this) addrspace(1) #8 comdat align 2 !dbg !3261 {
entry:
  %retval = alloca %"class.aie::detail::vector.5", align 32
  %custom_type.tmp = alloca %"class.aie::detail::vector.5", align 32
  %tmp = alloca %struct.v32int16, align 32
  call addrspace(1) void @llvm.dbg.value(metadata %"class.aie::detail::vector"* %this, metadata !3263, metadata !DIExpression()), !dbg !3265
  call addrspace(1) void @llvm.dbg.declare(metadata %"class.aie::detail::vector.5"* %retval, metadata !3264, metadata !DIExpression()), !dbg !3266
  call addrspace(1) void @_ZN3aie6detail6vectorIsLj32EEC2Ev(%"class.aie::detail::vector.5"* nonnull dereferenceable(64) %custom_type.tmp) #26, !dbg !3266
  %0 = load %"class.aie::detail::vector.5", %"class.aie::detail::vector.5"* %custom_type.tmp, align 32, !dbg !3266, !tbaa !3267
  store %"class.aie::detail::vector.5" %0, %"class.aie::detail::vector.5"* %retval, align 32, !dbg !3266, !tbaa !3267
  %data = getelementptr inbounds %"class.aie::detail::vector.5", %"class.aie::detail::vector.5"* %retval, i32 0, i32 0, !dbg !3269
  %1 = bitcast %struct.v32int16* %tmp to i8*, !dbg !3272
  call addrspace(1) void @llvm.lifetime.start.p0i8(i64 64, i8* %1) #24, !dbg !3272
  %data2 = getelementptr inbounds %"class.aie::detail::vector", %"class.aie::detail::vector"* %this, i32 0, i32 0, !dbg !3273
  %2 = load %struct.ipd.custom_type.v32int8.v32int8, %struct.ipd.custom_type.v32int8.v32int8* %data2, align 32, !dbg !3272, !tbaa !2398
  %call = call addrspace(1) %struct.v32int16 @_Z6unpack7v32int8(%struct.ipd.custom_type.v32int8.v32int8 %2) #32, !dbg !3272
  %3 = getelementptr inbounds %struct.v32int16, %struct.v32int16* %tmp, i32 0, i32 0, !dbg !3272
  %4 = extractvalue %struct.v32int16 %call, 0, !dbg !3272
  store %struct.ipd.custom_type.v64int8.v64int8 %4, %struct.ipd.custom_type.v64int8.v64int8* %3, align 32, !dbg !3272
  %5 = load %struct.v32int16, %struct.v32int16* %tmp, align 32, !dbg !3272, !tbaa !2421
  store %struct.v32int16 %5, %struct.v32int16* %data, align 32, !dbg !3272, !tbaa !2421
  %6 = bitcast %struct.v32int16* %tmp to i8*, !dbg !3272
  call addrspace(1) void @llvm.lifetime.end.p0i8(i64 64, i8* %6) #24, !dbg !3272
  %7 = load %"class.aie::detail::vector.5", %"class.aie::detail::vector.5"* %retval, align 32, !dbg !3274
  ret %"class.aie::detail::vector.5" %7, !dbg !3274
}

; Function Attrs: alwaysinline nounwind mustprogress
define linkonce_odr dso_local void @_ZN3aie6detail8mul_bitsILNS0_10MulMacroOpE2ELj48ELj16EsLj16EsE3runILj32EJNS0_5accumILNS0_10AccumClassE0ELj32ELj32EEEEEEDaRKNS0_6vectorIsXT_EEEbRKsbDpRKT0_(%"class.aie::detail::accum"* noalias sret(%"class.aie::detail::accum") align 32 %agg.result, %"class.aie::detail::vector.5"* nonnull align 32 dereferenceable(64) %v, i1 zeroext %v_sign, i16* nonnull align 2 dereferenceable(2) %a, i1 zeroext %a_sign, %"class.aie::detail::accum"* nonnull align 32 dereferenceable(256) %acc) addrspace(1) #8 comdat align 2 !dbg !3275 {
entry:
  call addrspace(1) void @llvm.dbg.value(metadata %"class.aie::detail::vector.5"* %v, metadata !3291, metadata !DIExpression()), !dbg !3296
  %frombool = zext i1 %v_sign to i8
  call addrspace(1) void @llvm.dbg.value(metadata i8 %frombool, metadata !3292, metadata !DIExpression()), !dbg !3296
  call addrspace(1) void @llvm.dbg.value(metadata i16* %a, metadata !3293, metadata !DIExpression()), !dbg !3296
  %frombool1 = zext i1 %a_sign to i8
  call addrspace(1) void @llvm.dbg.value(metadata i8 %frombool1, metadata !3294, metadata !DIExpression()), !dbg !3296
  call addrspace(1) void @llvm.dbg.value(metadata %"class.aie::detail::accum"* %acc, metadata !3295, metadata !DIExpression()), !dbg !3296
  %tobool = trunc i8 %frombool to i1, !dbg !3297
  %0 = load i16, i16* %a, align 2, !dbg !3298, !tbaa !3256
  %tobool2 = trunc i8 %frombool1 to i1, !dbg !3299
  call addrspace(1) void @_ZN3aie6detail13mul_bits_implILNS0_10MulMacroOpE2ELj48ELj16EsLj16EsE3runILj32EJNS0_5accumILNS0_10AccumClassE0ELj32ELj32EEEEEENS5_ILS6_0ELj48EXT_EEERKNS0_6vectorIsXT_EEEbsbDpRKT0_(%"class.aie::detail::accum"* sret(%"class.aie::detail::accum") align 32 %agg.result, %"class.aie::detail::vector.5"* nonnull align 32 dereferenceable(64) %v, i1 zeroext %tobool, i16 signext %0, i1 zeroext %tobool2, %"class.aie::detail::accum"* nonnull align 32 dereferenceable(256) %acc) #26, !dbg !3300
  ret void, !dbg !3301
}

; Function Attrs: alwaysinline nounwind mustprogress
define linkonce_odr dso_local void @_ZN3aie6detail13mul_bits_implILNS0_10MulMacroOpE2ELj48ELj16EsLj16EsE3runILj32EJNS0_5accumILNS0_10AccumClassE0ELj32ELj32EEEEEENS5_ILS6_0ELj48EXT_EEERKNS0_6vectorIsXT_EEEbsbDpRKT0_(%"class.aie::detail::accum"* noalias sret(%"class.aie::detail::accum") align 32 %agg.result, %"class.aie::detail::vector.5"* nonnull align 32 dereferenceable(64) %v, i1 zeroext %v_sign, i16 signext %a, i1 zeroext %a_sign, %"class.aie::detail::accum"* nonnull align 32 dereferenceable(256) %acc) addrspace(1) #8 comdat align 2 !dbg !3302 {
entry:
  %mul_op = alloca %class.anon, align 1
  %scalar = alloca %"class.aie::detail::vector.6", align 32
  %custom_type.tmp = alloca %"class.aie::detail::vector.6", align 32
  %custom_type.tmp2 = alloca %"class.aie::detail::accum", align 32
  %ref.tmp = alloca %class.anon.7, align 4
  call addrspace(1) void @llvm.dbg.value(metadata %"class.aie::detail::vector.5"* %v, metadata !3317, metadata !DIExpression()), !dbg !3448
  %frombool = zext i1 %v_sign to i8
  call addrspace(1) void @llvm.dbg.value(metadata i8 %frombool, metadata !3318, metadata !DIExpression()), !dbg !3448
  call addrspace(1) void @llvm.dbg.value(metadata i16 %a, metadata !3319, metadata !DIExpression()), !dbg !3448
  %frombool1 = zext i1 %a_sign to i8
  call addrspace(1) void @llvm.dbg.value(metadata i8 %frombool1, metadata !3320, metadata !DIExpression()), !dbg !3448
  call addrspace(1) void @llvm.dbg.value(metadata %"class.aie::detail::accum"* %acc, metadata !3321, metadata !DIExpression()), !dbg !3448
  store %class.anon undef, %class.anon* %mul_op, align 1, !dbg !3449
  %0 = bitcast %class.anon* %mul_op to i8*, !dbg !3449
  call addrspace(1) void @llvm.lifetime.start.p0i8(i64 1, i8* %0) #24, !dbg !3449
  call addrspace(1) void @llvm.dbg.declare(metadata %class.anon* %mul_op, metadata !3322, metadata !DIExpression()), !dbg !3450
  %1 = bitcast %class.anon* %mul_op to i8*, !dbg !3450
  call addrspace(1) void @llvm.memcpy.p0i8.p0i8.i32(i8* align 1 %1, i8* align 1 getelementptr inbounds (%class.anon, %class.anon* @__const._ZN3aie6detail13mul_bits_implILNS0_10MulMacroOpE2ELj48ELj16EsLj16EsE3runILj32EJNS0_5accumILNS0_10AccumClassE0ELj32ELj32EEEEEENS5_ILS6_0ELj48EXT_EEERKNS0_6vectorIsXT_EEEbsbDpRKT0_.mul_op, i32 0, i32 0), i32 1, i1 false), !dbg !3450
  call addrspace(1) void @llvm.dbg.value(metadata i32 undef, metadata !3325, metadata !DIExpression()), !dbg !3448
  call addrspace(1) void @llvm.dbg.value(metadata i32 2, metadata !3325, metadata !DIExpression()), !dbg !3448
  store %"class.aie::detail::vector.6" undef, %"class.aie::detail::vector.6"* %scalar, align 32, !dbg !3451
  %2 = bitcast %"class.aie::detail::vector.6"* %scalar to i8*, !dbg !3451
  call addrspace(1) void @llvm.lifetime.start.p0i8(i64 32, i8* %2) #24, !dbg !3451
  call addrspace(1) void @llvm.dbg.declare(metadata %"class.aie::detail::vector.6"* %scalar, metadata !3326, metadata !DIExpression()), !dbg !3452
  %conv = sext i16 %a to i32, !dbg !3453
  call addrspace(1) void @_ZN3aie6detail6vectorIiLj8EEC2IJEEEiDpOT_(%"class.aie::detail::vector.6"* nonnull dereferenceable(32) %custom_type.tmp, i32 %conv) #26, !dbg !3452
  %3 = load %"class.aie::detail::vector.6", %"class.aie::detail::vector.6"* %custom_type.tmp, align 32, !dbg !3452, !tbaa !3454
  store %"class.aie::detail::vector.6" %3, %"class.aie::detail::vector.6"* %scalar, align 32, !dbg !3452, !tbaa !3454
  call addrspace(1) void @llvm.dbg.declare(metadata %"class.aie::detail::accum"* %agg.result, metadata !3447, metadata !DIExpression()), !dbg !3456
  call addrspace(1) void @_ZN3aie6detail5accumILNS0_10AccumClassE0ELj48ELj32EEC2Ev(%"class.aie::detail::accum"* nonnull dereferenceable(256) %custom_type.tmp2) #26, !dbg !3456
  %4 = load %"class.aie::detail::accum", %"class.aie::detail::accum"* %custom_type.tmp2, align 32, !dbg !3456, !tbaa !3457
  store %"class.aie::detail::accum" %4, %"class.aie::detail::accum"* %agg.result, align 32, !dbg !3456, !tbaa !3457
  %5 = bitcast %class.anon.7* %ref.tmp to i8*, !dbg !3459
  call addrspace(1) void @llvm.lifetime.start.p0i8(i64 20, i8* %5) #24, !dbg !3459
  %6 = getelementptr inbounds %class.anon.7, %class.anon.7* %ref.tmp, i32 0, i32 0, !dbg !3459
  store %class.anon* %mul_op, %class.anon** %6, align 4, !dbg !3459, !tbaa !839
  %7 = getelementptr inbounds %class.anon.7, %class.anon.7* %ref.tmp, i32 0, i32 1, !dbg !3459
  store %"class.aie::detail::accum"* %acc, %"class.aie::detail::accum"** %7, align 4, !dbg !3459, !tbaa !839
  %8 = getelementptr inbounds %class.anon.7, %class.anon.7* %ref.tmp, i32 0, i32 2, !dbg !3459
  store %"class.aie::detail::vector.5"* %v, %"class.aie::detail::vector.5"** %8, align 4, !dbg !3459, !tbaa !839
  %9 = getelementptr inbounds %class.anon.7, %class.anon.7* %ref.tmp, i32 0, i32 3, !dbg !3459
  store %"class.aie::detail::vector.6"* %scalar, %"class.aie::detail::vector.6"** %9, align 4, !dbg !3459, !tbaa !839
  %10 = getelementptr inbounds %class.anon.7, %class.anon.7* %ref.tmp, i32 0, i32 4, !dbg !3459
  store %"class.aie::detail::accum"* %agg.result, %"class.aie::detail::accum"** %10, align 4, !dbg !3459, !tbaa !839
  call addrspace(1) void @_ZN3aie6detail5utils12unroll_timesILj2EZNS0_13mul_bits_implILNS0_10MulMacroOpE2ELj48ELj16EsLj16EsE3runILj32EJNS0_5accumILNS0_10AccumClassE0ELj32ELj32EEEEEENS7_ILS8_0ELj48EXT_EEERKNS0_6vectorIsXT_EEEbsbDpRKT0_EUlT_E_EEvOT0_(%class.anon.7* nonnull align 4 dereferenceable(20) %ref.tmp) #26, !dbg !3460
  %11 = bitcast %class.anon.7* %ref.tmp to i8*, !dbg !3460
  call addrspace(1) void @llvm.lifetime.end.p0i8(i64 20, i8* %11) #24, !dbg !3460
  %12 = bitcast %"class.aie::detail::vector.6"* %scalar to i8*, !dbg !3461
  call addrspace(1) void @llvm.lifetime.end.p0i8(i64 32, i8* %12) #24, !dbg !3461
  %13 = bitcast %class.anon* %mul_op to i8*, !dbg !3461
  call addrspace(1) void @llvm.lifetime.end.p0i8(i64 1, i8* %13) #24, !dbg !3461
  ret void, !dbg !3461
}

; Function Attrs: alwaysinline nounwind
define linkonce_odr dso_local void @_ZN3aie6detail6vectorIiLj8EEC2IJEEEiDpOT_(%"class.aie::detail::vector.6"* nonnull dereferenceable(32) %this, i32 %v) unnamed_addr addrspace(1) #10 comdat align 2 !dbg !3462 {
entry:
  %v.addr = alloca i32, align 4
  call addrspace(1) void @llvm.dbg.value(metadata %"class.aie::detail::vector.6"* %this, metadata !3469, metadata !DIExpression()), !dbg !3475
  store i32 %v, i32* %v.addr, align 4, !tbaa !706
  call addrspace(1) void @llvm.dbg.declare(metadata i32* %v.addr, metadata !3471, metadata !DIExpression()), !dbg !3476
